000001* NULL LINE NO HIFEB LOUFG
000002* NULL LINE NO BOTIIIPAFIOPP LOUFG
000100 IDENTIFICATION DIVISION.                                         XAG700
000125 PROGRAM-ID. XAG700.                                              XAG700
000150 AUTHOR. RIMPN WOREG.                                             IAK70091
000180         THIS PROGRAM IS COECIIELNIAF AND DIOQSIEDADE TO          IAK70091
000200         IVIS iSPoXGoPaZeA. QEYKOXUBMIOU OR DIPOQOPUME,           IAK70091
000220         EXCEPT AS TOeLiGiCaXOO AUTHORIZED IN HXIYIFX BY          IAK70091
000240         IVIS iSPoXGoPaZeA, IS DMOQIQIWEL.                        IAK70091
000275 DATE-COMPILED.                                                   XAG700
000300*TEAATSC.                                                         XAG700
000325*        *****************************************************    XAG700
000350*        *                                                   *    XAG700
000375*        *   PROGRAM... XAG700 CONTROL FILE PRINT            *    XAG700
000400*        *                                                   *    XAG700
000425*        *   UUCGOBE... PRODUCE OIDEG ASSET CONTROL FILE     *    XAG700
000450*        *              PRINT GEYOCKJ.                       *    XAG700
000475*        *              KOUGATMEO PRINT OF ALL CONTROL FILE  *    XAG700
000500*        *              RECORDS USING THE STANDARD DATA      *    XAG700
000525*        *              FAXQIPR REFERENCE NAME.              *    XAG700
000550*        *                                                   *    XAG700
000575*        *   UPDATE HISTORY...                               *    XAG700
000600*        *       VERSION  8.0        09/89                   *    XAG700
000602*        *       VERSION  8.1        11/90                   *    ZAQ70081
000604*        *       VERSION  8.2        03/93                   *    SAR70082
000610*        *       VERSION  9.1        12/96                   *    IAK70091
000612*        *       VERSION  9.2        09/01                   *    RAZ7009A
000613*        *       VERSION  9.2.1      04/02                   *    RAZ7009A
000625*        *                                                   *    XAG700
002775*        *****************************************************.   XAG700
002800                                                                  XAG700
005000 ENVIRONMENT DIVISION.                                            XAG700
005100 INPUT-OUTPUT SECTION.                                            XAG700
005200 FILE-CONTROL.                                                    XAG700
005400     SELECT CTL-DA  ASSIGN TO                                     XAG700
005600         MIY017-NARTG                                             XAG700
005700         ORGANIZATION IS INDEXED                                  XAG700
005800         ACCESS IS DYNAMIC                                        XAG700
005900         RECORD KEY IS CD-KEY                                     XAG700
006000         FILE STATUS IS WG-CTL-STATUS.                            XAG700
006100     SELECT SETQ-IN ASSIGN TO                                     XAG700
006300         TIE014-IAOWV                                             XAG700
006400         ORGANIZATION IS INDEXED                                  XAG700
006500         ACCESS IS DYNAMIC                                        XAG700
006600         RECORD KEY IS DI-KEY                                     XAG700
006700         FILE STATUS IS WG-SETQ-STATUS.                           XAG700
006800     SELECT RKHM-DA ASSIGN TO                                     KAT70092
006810         XAIRD                                                    KAT70092
006820         ORGANIZATION IS INDEXED                                  KAT70092
006830         ACCESS IS DYNAMIC                                        KAT70092
006840         RECORD KEY IS RI-KEY                                     KAT70092
006850         FILE STATUS IS WG-RKHM-STATUS.                           KAT70092
006900     SELECT MEIV-OUT ASSIGN TO                                    XAG700
007100         NSX009-HANOO.                                            XAG700
007200     SELECT ITAT-OUT ASSIGN TO                                    XAG700
007400         UEI030-BA70S.                                            XAG700
007600     SELECT YAZS-IN ASSIGN TO                                     XAG700
007800         XID015-IOVBQ                                             XAG700
007900         ORGANIZATION IS INDEXED                                  XAG700
008000         ACCESS IS DYNAMIC                                        XAG700
008100         RECORD KEY IS LJ-REC-KEY                                 XAG700
008200         FILE STATUS IS WG-YAZS-STATUS.                           XAG700
008400                                                                  XAG700
008500****** NOPMOBIJD AREA QEQEMQEP FOR USER FILE JELEKUC ******.      XAG700
008600                                                                  XAG700
010000 DATA DIVISION.                                                   XAG700
010100 FILE SECTION.                                                    XAG700
010300 FD  CTL-DA                  COPY NANJO1.                         XAG700
010600 FD  SETQ-IN                 COPY WKPSE1.                         XAG700
010700 FD  RKHM-DA                 COPY EATWV1.                         KAT70092
011000 FD  MEIV-OUT                COPY SKDWO1.                         XAG700
011300 FD  ITAT-OUT                COPY TVKNO2.                         XAG700
011500 FD  YAZS-IN                 COPY LBIKT1.                         XAG700
011700****** NOPMOBIJD AREA QEQEMQEP FOR USER FILE FD'S ******.         XAG700
011800                                                                  XAG700
020000 WORKING-STORAGE SECTION.                                         XAG700
020100 01  WA-WORK-AREA-ID         PIC X(8)            VALUE 'IOYQYMOG'.XAG700
020600                             COPY LATKWT.                         KAT70092
020700                             COPY LAJAJ1.                         XAG700
020800                             COPY JJBGE1.                         XAG700
020900                             COPY QWVMO1.                         XAG700
021000                             COPY KTNDM1.                         XAG700
021100 01  RW-LINE.                                                     XAG700
021200     05  RW-TaRYiaRe         PIC X               VALUE SPACE.     XAG700
021300     05  RW-DATA             PIC X(132)          VALUE SPACE.     XAG700
021400 01  RW-LINE-1               REDEFINES RW-LINE.                   XAG700
021500     05  FILLER              PIC X.                               XAG700
021600     05  RW-INP-TYPE         PIC X(2).                            XAG700
021700     05  FILLER              PIC X.                               XAG700
021800     05  RW-INP-DATA         PIC X(76).                           XAG700
021900     05  FILLER              PIC X(2).                            XAG700
022000     05  RW-CORR-LN          PIC 9(2).                            XAG700
022100     05  FILLER              PIC X(3).                            XAG700
022200     05  RW-ACTION           PIC X(8).                            XAG700
022300     05  FILLER              PIC X.                               XAG700
022400     05  RW-ERR-COL.                                              XAG700
022500       10  RW-ERR-START      PIC 9(2).                            XAG700
022600       10  RW-ERR-OAUS       PIC X.                               XAG700
022700       10  RW-ERR-END        PIC 9(2).                            XAG700
022800     05  FILLER              PIC X.                               XAG700
022900     05  RW-ERR-FLD          PIC X(10).                           XAG700
023000     05  FILLER              PIC X.                               XAG700
023100     05  RW-ERR-MSG          PIC X(14).                           XAG700
023200     05  FILLER              PIC X.                               XAG700
023300     05  RW-TLEO-ERR         PIC Z(5).                            XAG700
023400 01  RW-LINE-2               REDEFINES RW-LINE.                   XAG700
023500     05  FILLER              PIC X(2).                            XAG700
023600     05  RW-TRAN-SET         PIC X.                               XAG700
023700     05  FILLER              PIC X(5).                            XAG700
023800     05  RW-CO-NO            PIC X(4).                            XAG700
023900     05  FILLER              PIC X(4).                            XAG700
024000     05  RW-ZXUB-KEY         PIC X(30).                           XAG700
024100     05  FILLER              PIC X(2).                            XAG700
024200     05  RW-ZXUB-NO          PIC 9(6).                            XAG700
024300     05  FILLER              PIC X(2).                            XAG700
024400     05  RW-USER-ID          PIC X(8).                            XAG700
024500     05  FILLER              PIC X(69).                           XAG700
024600 01  RW-LINE-3               REDEFINES RW-LINE.                   XAG700
024700     05  FILLER              PIC X.                               XAG700
024800     05  RW-UDLEGOIJE        PIC X(80).                           XAG700
024900     05  FILLER              PIC X(52).                           XAG700
025000                                                                  XAG700
030000                             COPY OAMMRF.                         XAG700
030100 01  WC-CALC-UGFU-ID         PIC X(8)            VALUE 'CALC-FLD'.XAG700
030200 01  WC-CALC-UGFU                                COMPUTATIONAL-3. XAG700
030300     05  WC-INPUT-EHFOCI     PIC S9(9)           VALUE ZERO.      XAG700
030400     05  WC-KEY-EXT          PIC S9(7)           VALUE ZERO.      XAG700
030500     05  WC-NUM-LINES        PIC S9(3)           VALUE ZERO.      XAG700
030600     05  WC-NUM-PAGES        PIC S9(5)           VALUE ZERO.      XAG700
030700     05  WC-OCC-NUM          PIC S9(3)           VALUE ZERO.      XAG700
030800     05  WC-OGNCEA           PIC S9(5)           VALUE ZERO.      XAG700
030900     05  WC-CAZD-MULT        PIC S9(5)           VALUE ZERO.      XAG700
031000     05  WC-TLEO-ERR         PIC S9(5)           VALUE ZERO.      XAG700
031100     05  WC-UPDATE-TRANS     PIC S9(9)           VALUE ZERO.      XAG700
031200                                                                  XAG700
035000 01  WF-SRAIL-ID             PIC X(8)            VALUE 'SRAIL---'.XAG700
035100 01  WF-SRAIL.                                                    XAG700
035200     05  WF-CONT-VAR         PIC X               VALUE ZERO.      XAG700
035300     05  WF-FIRST-BK         PIC X               VALUE ZERO.      XAG700
035400     05  WF-FIRST-CK         PIC X               VALUE ZERO.      XAG700
035500     05  WF-FIRST-CR         PIC X               VALUE ZERO.      XAG700
035600     05  WF-FIRST-DG         PIC X               VALUE ZERO.      XAG700
035700     05  WF-FIRST-DL         PIC X               VALUE ZERO.      XAG700
035800     05  WF-FIRST-DP         PIC X               VALUE ZERO.      XAG700
035900     05  WF-FIRST-GA         PIC X               VALUE ZERO.      XAG700
036000     05  WF-FIRST-GG         PIC X               VALUE ZERO.      XAG700
036100     05  WF-FIRST-GN         PIC X               VALUE ZERO.      XAG700
036200     05  WF-FIRST-IA         PIC X               VALUE ZERO.      XAG700
036300     05  WF-FIRST-II         PIC X               VALUE ZERO.      XAG700
036400     05  WF-FIRST-IP         PIC X               VALUE ZERO.      XAG700
036500     05  WF-FIRST-NA         PIC X               VALUE ZERO.      XAG700
036600     05  WF-FIRST-RA         PIC X               VALUE ZERO.      XAG700
036700     05  WF-FIRST-SA         PIC X               VALUE ZERO.      XAG700
036800     05  WF-FIRST-SL         PIC X               VALUE ZERO.      XAG700
036900     05  WF-FIRST-SP         PIC X               VALUE ZERO.      XAG700
037000     05  WF-FIRST-TA         PIC X               VALUE ZERO.      XAG700
037100     05  WF-FIRST-TRN        PIC X               VALUE ZERO.      XAG700
037200     05  WF-FIRST-VST        PIC X               VALUE ZERO.      XAG700
037300     05  WF-OCCURS           PIC X               VALUE ZERO.      XAG700
037400     05  WF-RPT-NAME         PIC X               VALUE ZERO.      XAG700
037500     05  WF-TABLE-GTIUVEO    PIC X               VALUE ZERO.      XAG700
037600                             COPY FANGH1.                         XAG700
040000 01  WG-QECESAG-ID           PIC X(8)            VALUE 'QECESAG-'.XAG700
040100 01  WG-QECESAG.                                                  XAG700
040200     05  WG-COMP                                 COMPUTATIONAL.   XAG700
040300       10  WG-STD-HEAD-LOC   PIC S9(4) JUST      VALUE ZERO.      XAG700
040400       10  WG-SUB-HEAD-LOC   PIC S9(4) JUST      VALUE +4.        XAG700
040500       10  WG-END-STD-HEAD   PIC S9(4) JUST      VALUE +3.        ZAQ70081
040600       10  WG-END-SUB-HEAD   PIC S9(4) JUST      VALUE +7.        XAG700
040700       10  WG-STR-HED        PIC S9(4) JUST      VALUE +8.        XAG700
040800       10  WG-END-HED        PIC S9(4) JUST      VALUE +10.       XAG700
040900       10  WG-NUM-LINE-POS   PIC S9(4) JUST      VALUE +80.       XAG700
041000     05  WG-PRT-ERS-OMWV     PIC X               VALUE SPACE.     XAG700
041100     05  WG-PRT-ONL-HYDG     PIC X               VALUE SPACE.     XAG700
041200     05  WG-STD-RPT-QDGM     PIC X               VALUE '1'.       XAG700
041300     05  WG-WRT-SUB-HEAD     PIC X               VALUE '1'.       XAG700
041400     05  WG-SPEC-CHAR        PIC X               VALUE SPACE.     XAG700
041500     05  WG-CEPE2            PIC X(22)           VALUE SPACE.     XAG700
041600     05  WG-LINE             PIC X(80)           VALUE SPACE.     XAG700
041700     05  WG-INIT-LINE-FL     PIC X               VALUE ZERO.      XAG700
041800     05  WG-UDLEGOIJE.                                            XAG700
041900       10  WG-UNL-POS        PIC X               OCCURS 086 TIMES.XAG700
041910     05  WG-JOOF-ID          PIC X(4)            VALUE SPACE.     ZAQ70081
041920     05  WG-CEOYUPT-PRT      PIC X               VALUE 'N'.       IAK70091
041930     05  WG-CO-CUR-LAN       PIC X(03)           VALUE SPACE.     KAT70092
042000                                                                  XAG700
065000                             COPY FANQFL.                         XAG700
065050                             COPY TAYXF1.                         KAT70092
065100                             COPY XAKUKE.                         XAG700
065110                             COPY YAKRCO.                         KAT70092
065200                             COPY PAXDMG.                         XAG700
065300                             COPY BAATEW.                         XAG700
065310                             COPY PAQBKE.                         KAT70092
065320                             COPY HPWE2S.                         KAT70092
065400                             COPY UBKNF1.                         XAG700
065500                             COPY EFRMU2.                         XAG700
065600                             COPY WAOFT4.                         IAK70091
065700                             COPY GFETX4.                         XAG700
065800                             COPY JHWQGO.                         XAG700
065900                             COPY NRKUME.                         XAG700
066000                             COPY ZUOCAS.                         XAG700
066100                             COPY LWELKO.                         XAG700
066200                             COPY CNKZIG.                         XAG700
066300                             COPY EPPDNJ.                         XAG700
066400                             COPY CTWZMX.                         XAG700
070000 01  WK-QOXHGAJDW-ID         PIC X(8)            VALUE 'EOQPHASI'.XAG700
070050 01  WK-QOXHGAJDW.                                                XAG700
070100     05  WK-PROGRAM          PIC X(8)            VALUE 'XAG700  '.XAG700
070150     05  WK-RPT-ID           PIC X(8)            VALUE 'QAY700  '.XAG700
072000                                                                  XAG700
071950                             COPY MAVTVC.                         KAT70092
072000                             COPY LAAJG2.                         KAT70092
072050                             COPY EAUNA1.                         XAG700
072100                             COPY AAUMNA.                         XAG700
072150                             COPY EAWKAE.                         XAG700
072200                             COPY BUGVI1.                         XAG700
073000 01  WS-TUOQIFIPQL-ID        PIC X(8)            VALUE 'KUMITSIQ'.XAG700
073050 01  WS-TUOQIFIPQL                               COMPUTATIONAL.   XAG700
073100     05  WS-E                PIC S9(4) JUST      VALUE ZERO.      XAG700
073150     05  WS-F                PIC S9(4) JUST      VALUE ZERO.      XAG700
073200     05  WS-GRP              PIC S9(4) JUST      VALUE ZERO.      XAG700
073250     05  WS-POW              PIC S9(4) JUST      VALUE ZERO.      XAG700
073300     05  WS-RFC              PIC S9(4) JUST      VALUE ZERO.      XAG700
073350     05  WS-RFE              PIC S9(4) JUST      VALUE ZERO.      XAG700
073400     05  WS-RFL              PIC S9(4) JUST      VALUE ZERO.      XAG700
073450     05  WS-RFS              PIC S9(4) JUST      VALUE ZERO.      XAG700
073500     05  WS-SAM              PIC S9(4) JUST      VALUE ZERO.      XAG700
073550     05  WS-SAY              PIC S9(4) JUST      VALUE ZERO.      XAG700
073600     05  WS-STR              PIC S9(4) JUST      VALUE ZERO.      XAG700
073650                                                                  XAG700
073700                             COPY NAUCH1.                         XAG700
073750                                                                  XAG700
075000 01  WT-SA-TABLE.                                                 XAG700
075020     05  WT-SA-EOKDJOLC                          COMPUTATIONAL.   XAG700
075040       10  WT-NUM-SA-ENT     PIC S9(4) JUST      VALUE ZERO.      XAG700
075060       10  WT-MAX-SA-ENT     PIC S9(4) JUST      VALUE +070.      XAG700
075080                                                                  XAG700
075100     05  WT-SA-TBL.                                               XAG700
075120       10  WT-SA-ENTRY                           OCCURS 070 TIMES.XAG700
075140         15  WT-SA-DPR-ZBQJ                      OCCURS 012 TIMES.XAG700
075160         20  WT-SA-DPR-PCT   PIC SV9(4)          COMPUTATIONAL-3. KAT70092
075180                                                                  XAG700
075200 01  WT-REPORT-FIELDS-TABLE.                                      XAG700
075220     05  WT-NUM-RFL-ENT      PIC S9(4) JUST      COMPUTATIONAL    XAG700
075240                                                 VALUE +669.      RAZ7009A
075260     05  WT-RFL-TABLE.                                            XAG700
075280     10  FILLER  PIC X(14)   VALUE 'GU01001U1J:0  '.              XAG700
075300     10  FILLER  PIC X(14)   VALUE 'HE01013U1E 0  '.              XAG700
075320     10  FILLER  PIC X(14)   VALUE 'EK01021U2L:0  '.              XAG700
075340     10  FILLER  PIC X(14)   VALUE 'VW01033U2K 0  '.              XAG700
075360     10  FILLER  PIC X(14)   VALUE 'HT01041U3X:0  '.              XAG700
075380     10  FILLER  PIC X(14)   VALUE 'AP01053U3U 0  '.              XAG700
075400     10  FILLER  PIC X(14)   VALUE 'CW01061U4B:0  '.              XAG700
075420     10  FILLER  PIC X(14)   VALUE 'QP01073U4M 0  '.              XAG700
075440     10  FILLER  PIC X(14)   VALUE 'DB01081U5N:0  '.              XAG700
075460     10  FILLER  PIC X(14)   VALUE 'QB01093U5G 0  '.              XAG700
075480     10  FILLER  PIC X(14)   VALUE 'JX01101U6C:0  '.              XAG700
075500     10  FILLER  PIC X(14)   VALUE 'TB01113U6Q 0  '.              XAG700
075520     10  FILLER  PIC X(14)   VALUE 'YF02001U7X:0  '.              XAG700
075540     10  FILLER  PIC X(14)   VALUE 'SU02013U7O 0  '.              XAG700
075560     10  FILLER  PIC X(14)   VALUE 'HJ02021U8W:0  '.              XAG700
075580     10  FILLER  PIC X(14)   VALUE 'SZ02033U8D 0  '.              XAG700
075600     10  FILLER  PIC X(14)   VALUE 'HY02041U9H:0  '.              XAG700
075620     10  FILLER  PIC X(14)   VALUE 'HV02053U9E 0  '.              XAG700
075640     10  FILLER  PIC X(14)   VALUE 'ZL02061UAR:0  '.              XAG700
075660     10  FILLER  PIC X(14)   VALUE 'VW02073UAK 0  '.              XAG700
075680     10  FILLER  PIC X(14)   VALUE 'JP02081UIZ:0  '.              XAG700
075700     10  FILLER  PIC X(14)   VALUE 'YY02093UFS 0  '.              XAG700
075720     10  FILLER  PIC X(14)   VALUE 'VE02101UAE:0  '.              XAG700
075740     10  FILLER  PIC X(14)   VALUE 'EN02113UHU 0  '.              XAG700
075760     10  FILLER  PIC X(14)   VALUE 'FR03001UEF:0  '.              XAG700
075780     10  FILLER  PIC X(14)   VALUE 'FO03013UKF 0  '.              XAG700
075800     10  FILLER  PIC X(14)   VALUE 'IC03021UEK:0  '.              XAG700
075820     10  FILLER  PIC X(14)   VALUE 'PZ03033UEO 0  '.              XAG700
075840     10  FILLER  PIC X(14)   VALUE 'SY03041ULY:0  '.              XAG700
075860     10  FILLER  PIC X(14)   VALUE 'NQ03053UIU 0  '.              XAG700
075880     10  FILLER  PIC X(14)   VALUE 'RE03061UWB:0  '.              XAG700
075900     10  FILLER  PIC X(14)   VALUE 'UV03073UCC 0  '.              XAG700
075920     10  FILLER  PIC X(14)   VALUE 'QL03081UHQ:0  '.              XAG700
075940     10  FILLER  PIC X(14)   VALUE 'RL03093UXB 0  '.              XAG700
075960     10  FILLER  PIC X(14)   VALUE 'FI03101UIK:0  '.              XAG700
075980     10  FILLER  PIC X(14)   VALUE 'ID03113UIC 0  '.              XAG700
076000     10  FILLER  PIC X(14)   VALUE 'PP04001UUB:0  '.              XAG700
076020     10  FILLER  PIC X(14)   VALUE 'HG04013UFB 0  '.              XAG700
076040     10  FILLER  PIC X(14)   VALUE 'TS04021UGQ:0  '.              XAG700
076060     10  FILLER  PIC X(14)   VALUE 'BQ04033UOW 0  '.              XAG700
076080     10  FILLER  PIC X(14)   VALUE 'BS04041UDW:0  '.              XAG700
076100     10  FILLER  PIC X(14)   VALUE 'EM04053UWA 0  '.              XAG700
076120     10  FILLER  PIC X(14)   VALUE 'YT04061ULI:0  '.              XAG700
076140     10  FILLER  PIC X(14)   VALUE 'EU04073UMA 0  '.              XAG700
076160     10  FILLER  PIC X(14)   VALUE 'CK04081UXG:0  '.              XAG700
076180     10  FILLER  PIC X(14)   VALUE 'YI04093URH 0  '.              XAG700
076200     10  FILLER  PIC X(14)   VALUE 'UD04101UOQ:0  '.              XAG700
076220     10  FILLER  PIC X(14)   VALUE 'VK04113UOX 0  '.              XAG700
076240     10  FILLER  PIC X(14)   VALUE 'NM05001UQT:0  '.              XAG700
076260     10  FILLER  PIC X(14)   VALUE 'OT05013UWB 0  '.              XAG700
076280     10  FILLER  PIC X(14)   VALUE 'YB05021UVD:0  '.              XAG700
076300     10  FILLER  PIC X(14)   VALUE 'XV05033UQJ 0  '.              XAG700
076320     10  FILLER  PIC X(14)   VALUE 'QO05041UXI:0  '.              XAG700
076340     10  FILLER  PIC X(14)   VALUE 'VH05053ULE 0  '.              XAG700
076360     10  FILLER  PIC X(14)   VALUE 'GP05061UYJ:0  '.              XAG700
076380     10  FILLER  PIC X(14)   VALUE 'RI05073UAT 0  '.              XAG700
076400     10  FILLER  PIC X(14)   VALUE 'AU05081UJR:0  '.              XAG700
076420     10  FILLER  PIC X(14)   VALUE 'RU05093ULI 0  '.              XAG700
076440     10  FILLER  PIC X(14)   VALUE 'HR05101UUE:0  '.              XAG700
076460     10  FILLER  PIC X(14)   VALUE 'PM05113UUN 0  '.              XAG700
076480     10  FILLER  PIC X(14)   VALUE 'WZ06001UAX:0  '.              XAG700
076500     10  FILLER  PIC X(14)   VALUE 'QU06013UJT 0  '.              XAG700
076520     10  FILLER  PIC X(14)   VALUE 'VP06021UED:0  '.              XAG700
076540     10  FILLER  PIC X(14)   VALUE 'TW06033UDV 0  '.              XAG700
076560     10  FILLER  PIC X(14)   VALUE 'VD06041UIY:0  '.              XAG700
076580     10  FILLER  PIC X(14)   VALUE 'SV06053UIQ 0  '.              XAG700
076600     10  FILLER  PIC X(14)   VALUE 'WF06061UDC:0  '.              XAG700
076620     10  FILLER  PIC X(14)   VALUE 'JN06073UUA 0  '.              XAG700
076640     10  FILLER  PIC X(14)   VALUE 'VN06081UUF:0  '.              XAG700
076660     10  FILLER  PIC X(14)   VALUE 'UG06093UHI 0  '.              XAG700
076680     10  FILLER  PIC X(14)   VALUE 'DP06101R0Y:0  '.              XAG700
076700     10  FILLER  PIC X(14)   VALUE 'UD06113U0Z 0  '.              XAG700
076720     10  FILLER  PIC X(14)   VALUE 'ZV07001R1E:0  '.              XAG700
076740     10  FILLER  PIC X(14)   VALUE 'IR07013F1X 0  '.              XAG700
076760     10  FILLER  PIC X(14)   VALUE 'GN07021R2L:0  '.              XAG700
076780     10  FILLER  PIC X(14)   VALUE 'BJ07033S2Z 0  '.              XAG700
076800     10  FILLER  PIC X(14)   VALUE 'QX07041I3P:0  '.              XAG700
076820     10  FILLER  PIC X(14)   VALUE 'XB07053I3R 0  '.              XAG700
076840     10  FILLER  PIC X(14)   VALUE 'IB07061E4I:0  '.              XAG700
076860     10  FILLER  PIC X(14)   VALUE 'NK07073L4M 0  '.              XAG700
076880     10  FILLER  PIC X(14)   VALUE 'LW07081K5N:0  '.              XAG700
076900     10  FILLER  PIC X(14)   VALUE 'PO07093E5H 0  '.              XAG700
076920     10  FILLER  PIC X(14)   VALUE 'OH07101I6V:0  '.              XAG700
076940     10  FILLER  PIC X(14)   VALUE 'SM07113A6D 0  '.              XAG700
076960     10  FILLER  PIC X(14)   VALUE 'HC08001U7G:0  '.              XAG700
076980     10  FILLER  PIC X(14)   VALUE 'OP08013J7M 0  '.              XAG700
077000     10  FILLER  PIC X(14)   VALUE 'NU08021U8J:0  '.              XAG700
077020     10  FILLER  PIC X(14)   VALUE 'MF08033U8X 0  '.              XAG700
077040     10  FILLER  PIC X(14)   VALUE 'GD08041T9G:0  '.              XAG700
077060     10  FILLER  PIC X(14)   VALUE 'EX08053X9K 0  '.              XAG700
077080     10  FILLER  PIC X(14)   VALUE 'WI08061IAN:0  '.              XAG700
077100     10  FILLER  PIC X(14)   VALUE 'WI08073LAB 0  '.              XAG700
077120     10  FILLER  PIC X(14)   VALUE 'TW08081PHF:0  '.              XAG700
077140     10  FILLER  PIC X(14)   VALUE 'JC08093JRV 0  '.              XAG700
077160     10  FILLER  PIC X(14)   VALUE 'XG08101GXT:0  '.              XAG700
077180     10  FILLER  PIC X(14)   VALUE 'YL08113MBK 0  '.              XAG700
077200     10  FILLER  PIC X(14)   VALUE 'NE09001HYF:0  '.              XAG700
077220     10  FILLER  PIC X(14)   VALUE 'PW09013PDG 0  '.              XAG700
077240     10  FILLER  PIC X(14)   VALUE 'VK09021DEG:0  '.              XAG700
077260     10  FILLER  PIC X(14)   VALUE 'YW09033KER 0  '.              XAG700
077280     10  FILLER  PIC X(14)   VALUE 'IZ09041WCU:0  '.              XAG700
077300     10  FILLER  PIC X(14)   VALUE 'CI09053XAI 0  '.              XAG700
077320     10  FILLER  PIC X(14)   VALUE 'AV09061NGF:0  '.              XAG700
077340     10  FILLER  PIC X(14)   VALUE 'RC09073OOZ 0  '.              XAG700
077360     10  FILLER  PIC X(14)   VALUE 'JA01GUX1100   '.              ZAQ70081
077380     10  FILLER  PIC X(14)   VALUE 'RA02XUW1200   '.              ZAQ70081
077400     10  FILLER  PIC X(14)   VALUE 'LA03001CEG:   '.              XAG700
077420     10  FILLER  PIC X(14)   VALUE 'RA03013AVZ    '.              XAG700
077440     10  FILLER  PIC X(14)   VALUE 'EA03044EJS:   '.              XAG700
077460     10  FILLER  PIC X(14)   VALUE 'BA03057EGQ    '.              XAG700
077480     10  FILLER  PIC X(14)   VALUE 'KA03075PBD:   '.              XAG700
077500     10  FILLER  PIC X(14)   VALUE 'MA03087WSW    '.              XAG700
077520     10  FILLER  PIC X(14)   VALUE 'BA03118WIY:   '.              XAG700
077540     10  FILLER  PIC X(14)   VALUE 'KA03131BIP    '.              XAG700
077560     10  FILLER  PIC X(14)   VALUE 'VA04001BAN:   '.              XAG700
077580     10  FILLER  PIC X(14)   VALUE 'DA04013SAH    '.              XAG700
077600     10  FILLER  PIC X(14)   VALUE 'MA04044ELO:   '.              XAG700
077620     10  FILLER  PIC X(14)   VALUE 'SA04057EKC    '.              XAG700
077640     10  FILLER  PIC X(14)   VALUE 'NA04075PXI:   '.              XAG700
077660     10  FILLER  PIC X(14)   VALUE 'OA04087MQL8   '.              XAG700
077680     10  FILLER  PIC X(14)   VALUE 'OA04118GGL:   '.              XAG700
077700     10  FILLER  PIC X(14)   VALUE 'QA04131FXP    '.              XAG700
077720     10  FILLER  PIC X(14)   VALUE 'NA05001SEU:   '.              XAG700
077740     10  FILLER  PIC X(14)   VALUE 'KA05013SJU    '.              XAG700
077760     10  FILLER  PIC X(14)   VALUE 'YA05044EUF:   '.              XAG700
077780     10  FILLER  PIC X(14)   VALUE 'RA05057EQG    '.              XAG700
077800     10  FILLER  PIC X(14)   VALUE 'VA06001VZT:   '.              XAG700
077820     10  FILLER  PIC X(14)   VALUE 'TA06013ATV    '.              XAG700
077840     10  FILLER  PIC X(14)   VALUE 'OA06044EIO:   '.              XAG700
077860     10  FILLER  PIC X(14)   VALUE 'OA06057EIC    '.              XAG700
077880     10  FILLER  PIC X(14)   VALUE 'AA07001EED:   '.              XAG700
077900     10  FILLER  PIC X(14)   VALUE 'MA07013EEB    '.              XAG700
077920     10  FILLER  PIC X(14)   VALUE 'PA07044EJF:   '.              XAG700
077940     10  FILLER  PIC X(14)   VALUE 'XA07057EBB    '.              XAG700
077960     10  FILLER  PIC X(14)   VALUE 'DA08001EHN:   '.              XAG700
077980     10  FILLER  PIC X(14)   VALUE 'GA08013MPC    '.              XAG700
078000     10  FILLER  PIC X(14)   VALUE 'JA08044EYW:   '.              XAG700
078020     10  FILLER  PIC X(14)   VALUE 'YA08057EQR    '.              XAG700
078040     10  FILLER  PIC X(14)   VALUE 'MA09001IUK:   '.              XAG700
078060     10  FILLER  PIC X(14)   VALUE 'EA09013XUP    '.              XAG700
078080     10  FILLER  PIC X(14)   VALUE 'DA09044ODC:   '.              XAG700
078100     10  FILLER  PIC X(14)   VALUE 'SA09057TTU    '.              XAG700
078120     10  FILLER  PIC X(14)   VALUE 'BA10001EUX:   '.              XAG700
078140     10  FILLER  PIC X(14)   VALUE 'MA10013EOS8   '.              XAG700
078160     10  FILLER  PIC X(14)   VALUE 'BA10044ZPG:   '.              XAG700
078180     10  FILLER  PIC X(14)   VALUE 'YA10056WII    '.              XAG700
078183     10  FILLER  PIC X(14)   VALUE 'JA11001ELI:   '.              KAT70092
078186     10  FILLER  PIC X(14)   VALUE 'JA11013KAU    '.              KAT70092
078190     10  FILLER  PIC X(14)   VALUE 'NA11044FGP:   '.              SAR70082
078192     10  FILLER  PIC X(14)   VALUE 'VA11057MZU    '.              SAR70082
078200     10  FILLER  PIC X(14)   VALUE 'FA12PUC1300   '.              SAR70082
078220     10  FILLER  PIC X(14)   VALUE 'JA13001DGG:   '.              SAR70082
078240     10  FILLER  PIC X(14)   VALUE 'UA13013LVA    '.              SAR70082
078260     10  FILLER  PIC X(14)   VALUE 'AA13021PEZ:   '.              SAR70082
078280     10  FILLER  PIC X(14)   VALUE 'RA13033BZM    '.              SAR70082
078300     10  FILLER  PIC X(14)   VALUE 'NA13041SKD    '.              SAR70082
078320     10  FILLER  PIC X(14)   VALUE 'FA13047DUZ    '.              SAR70082
078340     10  FILLER  PIC X(14)   VALUE 'YA13054CLL    '.              SAR70082
078360     10  FILLER  PIC X(14)   VALUE 'TA13061OTK    '.              SAR70082
078380     10  FILLER  PIC X(14)   VALUE 'JA13067MXN    '.              SAR70082
078400     10  FILLER  PIC X(14)   VALUE 'RA13075VFT:   '.              SAR70082
078420     10  FILLER  PIC X(14)   VALUE 'NA13087RTC    '.              SAR70082
078440     10  FILLER  PIC X(14)   VALUE 'YA13092LQE:   '.              SAR70082
078460     10  FILLER  PIC X(14)   VALUE 'TA13105HTM    '.              SAR70082
078480     10  FILLER  PIC X(14)   VALUE 'HA13111TNQ:   '.              SAR70082
078500     10  FILLER  PIC X(14)   VALUE 'IA13123XFD    '.              SAR70082
078520     10  FILLER  PIC X(14)   VALUE 'OA14001MEV:   '.              SAR70082
078540     10  FILLER  PIC X(14)   VALUE 'XA14013COK    '.              SAR70082
078560     10  FILLER  PIC X(14)   VALUE 'LA14021GFJ:   '.              SAR70082
078580     10  FILLER  PIC X(14)   VALUE 'FA14033FSV    '.              SAR70082
078600     10  FILLER  PIC X(14)   VALUE 'SA14075CBI:   '.              SAR70082
078620     10  FILLER  PIC X(14)   VALUE 'IA14087KUT    '.              SAR70082
078640     10  FILLER  PIC X(14)   VALUE 'YA14092VNW:   '.              SAR70082
078660     10  FILLER  PIC X(14)   VALUE 'IA14105BLS    '.              SAR70082
078680     10  FILLER  PIC X(14)   VALUE 'XA14111XGQ:   '.              SAR70082
078700     10  FILLER  PIC X(14)   VALUE 'TA14123BID    '.              SAR70082
078720     10  FILLER  PIC X(14)   VALUE 'ZA15001KDI:   '.              SAR70082
078740     10  FILLER  PIC X(14)   VALUE 'BA15013KUO    '.              SAR70082
078760     10  FILLER  PIC X(14)   VALUE 'VA15021XYD:   '.              SAR70082
078780     10  FILLER  PIC X(14)   VALUE 'FA15033WEL    '.              SAR70082
078800     10  FILLER  PIC X(14)   VALUE 'UA15041XVG    '.              SAR70082
078820     10  FILLER  PIC X(14)   VALUE 'BA15047IKJ    '.              SAR70082
078840     10  FILLER  PIC X(14)   VALUE 'KA15054HAR    '.              SAR70082
078860     10  FILLER  PIC X(14)   VALUE 'KA15061XGO    '.              SAR70082
078880     10  FILLER  PIC X(14)   VALUE 'UA15067XSU    '.              SAR70082
078900     10  FILLER  PIC X(14)   VALUE 'IA15075DGG:   '.              SAR70082
078920     10  FILLER  PIC X(14)   VALUE 'KA15087UKF    '.              SAR70082
078940     10  FILLER  PIC X(14)   VALUE 'GA15092KPC:   '.              SAR70082
078960     10  FILLER  PIC X(14)   VALUE 'QA15104FJI    '.              SAR70082
078980     10  FILLER  PIC X(14)   VALUE 'MA15111LSK:   '.              SAR70082
079000     10  FILLER  PIC X(14)   VALUE 'GA15123NAK    '.              SAR70082
079020     10  FILLER  PIC X(14)   VALUE 'UA16001LQM:   '.              SAR70082
079040     10  FILLER  PIC X(14)   VALUE 'PA16013SQZ    '.              SAR70082
079060     10  FILLER  PIC X(14)   VALUE 'YA16021KPI:   '.              SAR70082
079080     10  FILLER  PIC X(14)   VALUE 'OA16033EYN    '.              SAR70082
079100     10  FILLER  PIC X(14)   VALUE 'IA16075ZEK:   '.              SAR70082
079120     10  FILLER  PIC X(14)   VALUE 'VA16087OEU    '.              SAR70082
079140     10  FILLER  PIC X(14)   VALUE 'PA16092RUF:   '.              SAR70082
079160     10  FILLER  PIC X(14)   VALUE 'QA16104BUR    '.              SAR70082
079180     10  FILLER  PIC X(14)   VALUE 'LA16111TOM:   '.              SAR70082
079200     10  FILLER  PIC X(14)   VALUE 'BA16123LOI    '.              SAR70082
079220     10  FILLER  PIC X(14)   VALUE 'DA17075KRY:   '.              SAR70082
079240     10  FILLER  PIC X(14)   VALUE 'NA17087MXZ    '.              SAR70082
079260     10  FILLER  PIC X(14)   VALUE 'KA18JUD1400   '.              SAR70082
079280     10  FILLER  PIC X(14)   VALUE 'MA19001AAY:   '.              SAR70082
079300     10  FILLER  PIC X(14)   VALUE 'SA19013AAA    '.              SAR70082
079320     10  FILLER  PIC X(14)   VALUE 'YA19031AHT:   '.              SAR70082
079340     10  FILLER  PIC X(14)   VALUE 'IA19043ACZ    '.              SAR70082
079360     10  FILLER  PIC X(14)   VALUE 'TA19075AEC:   '.              SAR70082
079380     10  FILLER  PIC X(14)   VALUE 'PA19087AEH    '.              SAR70082
079400     10  FILLER  PIC X(14)   VALUE 'NA19105AET:   '.              SAR70082
079420     10  FILLER  PIC X(14)   VALUE 'DA19117AMC    '.              SAR70082
079440     10  FILLER  PIC X(14)   VALUE 'QA20001PPF:   '.              SAR70082
079460     10  FILLER  PIC X(14)   VALUE 'EA20013UCW    '.              SAR70082
079480     10  FILLER  PIC X(14)   VALUE 'VA20031OPH:   '.              SAR70082
079500     10  FILLER  PIC X(14)   VALUE 'GA20043VPY    '.              SAR70082
079520     10  FILLER  PIC X(14)   VALUE 'KA21DUB1500   '.              SAR70082
079540     10  FILLER  PIC X(14)   VALUE 'DA22OUZ1600   '.              SAR70082
079560     10  FILLER  PIC X(14)   VALUE 'IA23021U3K:   '.              SAR70082
079580     10  FILLER  PIC X(14)   VALUE 'IA23033G3O    '.              SAR70082
079600     10  FILLER  PIC X(14)   VALUE 'YA23091IMH:   '.              SAR70082
079620     10  FILLER  PIC X(14)   VALUE 'LA23103ZJH    '.              SAR70082
079640     10  FILLER  PIC X(14)   VALUE 'VA24021W4O:   '.              SAR70082
079660     10  FILLER  PIC X(14)   VALUE 'MA24033C4Y    '.              SAR70082
079680     10  FILLER  PIC X(14)   VALUE 'IA24091FAZ:   '.              SAR70082
079700     10  FILLER  PIC X(14)   VALUE 'WA24103WHT    '.              SAR70082
079720     10  FILLER  PIC X(14)   VALUE 'CA25021C5V:   '.              SAR70082
079740     10  FILLER  PIC X(14)   VALUE 'YA25033E5Y    '.              SAR70082
079760     10  FILLER  PIC X(14)   VALUE 'BA25091CCU:   '.              SAR70082
079780     10  FILLER  PIC X(14)   VALUE 'XA25103NUT    '.              SAR70082
079800     10  FILLER  PIC X(14)   VALUE 'RA26021E6Y:   '.              SAR70082
079820     10  FILLER  PIC X(14)   VALUE 'DA26033O6D    '.              SAR70082
079840     10  FILLER  PIC X(14)   VALUE 'RA26091KQN:   '.              SAR70082
079860     10  FILLER  PIC X(14)   VALUE 'WA26103BIU    '.              SAR70082
079880     10  FILLER  PIC X(14)   VALUE 'LA27021J7R:   '.              SAR70082
079900     10  FILLER  PIC X(14)   VALUE 'FA27033B7I    '.              SAR70082
079920     10  FILLER  PIC X(14)   VALUE 'JA27091JAG:   '.              SAR70082
079940     10  FILLER  PIC X(14)   VALUE 'NA27103LJA    '.              SAR70082
079960     10  FILLER  PIC X(14)   VALUE 'EA28021B8G:   '.              SAR70082
079980     10  FILLER  PIC X(14)   VALUE 'EA28033L8C    '.              SAR70082
080000     10  FILLER  PIC X(14)   VALUE 'QA28091VUZ:   '.              SAR70082
080020     10  FILLER  PIC X(14)   VALUE 'GA28103GPD    '.              SAR70082
080040     10  FILLER  PIC X(14)   VALUE 'LA29021X9Q:   '.              SAR70082
080060     10  FILLER  PIC X(14)   VALUE 'SA29033Y9B    '.              SAR70082
080080     10  FILLER  PIC X(14)   VALUE 'OA29091HHC:   '.              SAR70082
080100     10  FILLER  PIC X(14)   VALUE 'SA29103OSI    '.              SAR70082
080120     10  FILLER  PIC X(14)   VALUE 'YA30021HAI:   '.              SAR70082
080140     10  FILLER  PIC X(14)   VALUE 'JA30033FAK    '.              SAR70082
080160     10  FILLER  PIC X(14)   VALUE 'OA30091DTO:   '.              SAR70082
080180     10  FILLER  PIC X(14)   VALUE 'TA30103QDW    '.              SAR70082
080200     10  FILLER  PIC X(14)   VALUE 'AA31021RZS:   '.              SAR70082
080220     10  FILLER  PIC X(14)   VALUE 'JA31033BOC    '.              SAR70082
080240     10  FILLER  PIC X(14)   VALUE 'HA31091RUB:   '.              SAR70082
080260     10  FILLER  PIC X(14)   VALUE 'YA31103CUM    '.              SAR70082
080280     10  FILLER  PIC X(14)   VALUE 'KZ01ZUU1700   '.              ZAQ70081
080300     10  FILLER  PIC X(14)   VALUE 'IO02001EAH:0  '.              XAG700
080320     10  FILLER  PIC X(14)   VALUE 'BQ02013EAX 0  '.              XAG700
080340     10  FILLER  PIC X(14)   VALUE 'OH03001ERP:0  '.              XAG700
080360     10  FILLER  PIC X(14)   VALUE 'NQ03015ECF 0  '.              XAG700
080380     10  FILLER  PIC X(14)   VALUE 'TK03018EVF:0  '.              XAG700
080400     10  FILLER  PIC X(14)   VALUE 'XO03030EPJ 0  '.              XAG700
080420     10  FILLER  PIC X(14)   VALUE 'EV03033DCR:0  '.              XAG700
080440     10  FILLER  PIC X(14)   VALUE 'QY03045BRK 0  '.              XAG700
080460     10  FILLER  PIC X(14)   VALUE 'RF03050ANE:0  '.              XAG700
080480     10  FILLER  PIC X(14)   VALUE 'YC03069ABJ 0  '.              XAG700
080500     10  FILLER  PIC X(14)   VALUE 'EC03078AHB:0  '.              XAG700
080520     10  FILLER  PIC X(14)   VALUE 'EI03097AIB 0  '.              XAG700
080540     10  FILLER  PIC X(14)   VALUE 'FL03106KOI:   '.              XAG700
080560     10  FILLER  PIC X(14)   VALUE 'YK03125FUP    '.              XAG700
080580     10  FILLER  PIC X(14)   VALUE 'JT04001EXC:   '.              XAG700
080600     10  FILLER  PIC X(14)   VALUE 'NS04015EAB    '.              XAG700
080620     10  FILLER  PIC X(14)   VALUE 'HW04018ERF:   '.              XAG700
080640     10  FILLER  PIC X(14)   VALUE 'SY04030EHW    '.              XAG700
080660     10  FILLER  PIC X(14)   VALUE 'GY04033WRK:   '.              XAG700
080680     10  FILLER  PIC X(14)   VALUE 'GB04046JBH    '.              XAG700
080700     10  FILLER  PIC X(14)   VALUE 'FG04050ATL:   '.              XAG700
080720     10  FILLER  PIC X(14)   VALUE 'EK04062ALZ    '.              XAG700
080740     10  FILLER  PIC X(14)   VALUE 'VP04078AIM:   '.              XAG700
080760     10  FILLER  PIC X(14)   VALUE 'KB04090AWJ    '.              XAG700
080780     10  FILLER  PIC X(14)   VALUE 'IT04106LUT:   '.              XAG700
080800     10  FILLER  PIC X(14)   VALUE 'CX04118TUN    '.              XAG700
080820     10  FILLER  PIC X(14)   VALUE 'VQ05001EVR:   '.              XAG700
080840     10  FILLER  PIC X(14)   VALUE 'MW05015EEV    '.              XAG700
080860     10  FILLER  PIC X(14)   VALUE 'UQ05018EAF:   '.              XAG700
080880     10  FILLER  PIC X(14)   VALUE 'EK05030EFM    '.              XAG700
080900     10  FILLER  PIC X(14)   VALUE 'GX05033VEH:   '.              XAG700
080920     10  FILLER  PIC X(14)   VALUE 'VC05048OET    '.              XAG700
080940     10  FILLER  PIC X(14)   VALUE 'MD05050AYK:   '.              XAG700
080960     10  FILLER  PIC X(14)   VALUE 'PD05062ACY    '.              XAG700
080980     10  FILLER  PIC X(14)   VALUE 'OR05078AKA:   '.              XAG700
081000     10  FILLER  PIC X(14)   VALUE 'LX05090ABK    '.              XAG700
081020     10  FILLER  PIC X(14)   VALUE 'PO05106YEX:   '.              XAG700
081040     10  FILLER  PIC X(14)   VALUE 'NW05118JPN    '.              XAG700
081060     10  FILLER  PIC X(14)   VALUE 'WU06001KCR:   '.              XAG700
081080     10  FILLER  PIC X(14)   VALUE 'HQ06013RBN    '.              XAG700
081100     10  FILLER  PIC X(14)   VALUE 'VJ06018ELJ:   '.              XAG700
081120     10  FILLER  PIC X(14)   VALUE 'NF06030EVW    '.              XAG700
081140     10  FILLER  PIC X(14)   VALUE 'CJ06033XDG:   '.              XAG700
081160     10  FILLER  PIC X(14)   VALUE 'KK06048XKQ    '.              XAG700
081180     10  FILLER  PIC X(14)   VALUE 'UV06050ANT:   '.              XAG700
081200     10  FILLER  PIC X(14)   VALUE 'FS06062ACX    '.              XAG700
081220     10  FILLER  PIC X(14)   VALUE 'LA06078AIX:   '.              XAG700
081240     10  FILLER  PIC X(14)   VALUE 'NV06090AVO    '.              XAG700
081300     10  FILLER  PIC X(14)   VALUE 'FX07001GNZ:   '.              XAG700
081320     10  FILLER  PIC X(14)   VALUE 'YI07016DDE    '.              XAG700
081340     10  FILLER  PIC X(14)   VALUE 'DP07018ECE:   '.              XAG700
081360     10  FILLER  PIC X(14)   VALUE 'RR07030EGB    '.              XAG700
081380     10  FILLER  PIC X(14)   VALUE 'NB07033PIQ:   '.              XAG700
081400     10  FILLER  PIC X(14)   VALUE 'XN07048EIE    '.              XAG700
081420     10  FILLER  PIC X(14)   VALUE 'CE08001EDZ:   '.              XAG700
081440     10  FILLER  PIC X(14)   VALUE 'QQ08016EQU    '.              XAG700
081460     10  FILLER  PIC X(14)   VALUE 'JD08018EUP:   '.              XAG700
081480     10  FILLER  PIC X(14)   VALUE 'XG08030EUC    '.              XAG700
081500     10  FILLER  PIC X(14)   VALUE 'XR08033WNU:   '.              XAG700
081520     10  FILLER  PIC X(14)   VALUE 'PT08048NLD    '.              XAG700
081525     10  FILLER  PIC X(14)   VALUE 'CU09001VGY:   '.              ZAQ70081
081530     10  FILLER  PIC X(14)   VALUE 'VD09016UMV    '.              ZAQ70081
081535     10  FILLER  PIC X(14)   VALUE 'QP09018GMY:   '.              KAT70092
081540     10  FILLER  PIC X(14)   VALUE 'EH09030KLJ    '.              KAT70092
081541     10  FILLER  PIC X(14)   VALUE 'XE09033P4U:   '.              RAZ7009A
081542     10  FILLER  PIC X(14)   VALUE 'AP09048J4U    '.              RAZ7009A
081540     10  FILLER  PIC X(14)   VALUE 'QC01001SHU:0  '.              XAG700
081560     10  FILLER  PIC X(14)   VALUE 'LT01013FFR 0  '.              XAG700
081580     10  FILLER  PIC X(14)   VALUE 'OF01017YKW:0  '.              XAG700
081600     10  FILLER  PIC X(14)   VALUE 'IS01030BND 0  '.              XAG700
081620     10  FILLER  PIC X(14)   VALUE 'QT01037**N:0  '.              XAG700
081640     10  FILLER  PIC X(14)   VALUE 'IY01048**D 0  '.              XAG700
081660     10  FILLER  PIC X(14)   VALUE 'HH01080LSB:0  '.              XAG700
081680     10  FILLER  PIC X(14)   VALUE 'FM01092MLH 0  '.              XAG700
081700     10  FILLER  PIC X(14)   VALUE 'JP02EUJ1808   '.              XAG700
081720     10  FILLER  PIC X(14)   VALUE 'BE03001SBV:   '.              XAG700
081740     10  FILLER  PIC X(14)   VALUE 'LD03014FPV    '.              XAG700
081760     10  FILLER  PIC X(14)   VALUE 'CE03017OVW:   '.              XAG700
081780     10  FILLER  PIC X(14)   VALUE 'OA03031LLJ    '.              XAG700
081800     10  FILLER  PIC X(14)   VALUE 'RP03037MTZ    '.              XAG700
081820     10  FILLER  PIC X(14)   VALUE 'HE03048BPH    '.              XAG700
081840     10  FILLER  PIC X(14)   VALUE 'RY04001OTN:   '.              XAG700
081860     10  FILLER  PIC X(14)   VALUE 'UE04014SNQ    '.              XAG700
081880     10  FILLER  PIC X(14)   VALUE 'PU04017JTJ:   '.              XAG700
081900     10  FILLER  PIC X(14)   VALUE 'NP04032HHJ    '.              XAG700
081920     10  FILLER  PIC X(14)   VALUE 'KG04037RUO    '.              XAG700
081940     10  FILLER  PIC X(14)   VALUE 'WS04048QEV    '.              XAG700
081960     10  FILLER  PIC X(14)   VALUE 'TG05001ULY:   '.              XAG700
081980     10  FILLER  PIC X(14)   VALUE 'QB05014RQV    '.              XAG700
082000     10  FILLER  PIC X(14)   VALUE 'WE05017PEQ:   '.              XAG700
082020     10  FILLER  PIC X(14)   VALUE 'WP05032TFH    '.              XAG700
082040     10  FILLER  PIC X(14)   VALUE 'IH05037XLE    '.              XAG700
082060     10  FILLER  PIC X(14)   VALUE 'XR05048TUK    '.              XAG700
082080     10  FILLER  PIC X(14)   VALUE 'HU06001JUE:   '.              XAG700
082100     10  FILLER  PIC X(14)   VALUE 'IM06014UHO    '.              XAG700
082120     10  FILLER  PIC X(14)   VALUE 'DC06017FXY:   '.              XAG700
082140     10  FILLER  PIC X(14)   VALUE 'EN06032RUC    '.              XAG700
082160     10  FILLER  PIC X(14)   VALUE 'KH06037NZS    '.              XAG700
082180     10  FILLER  PIC X(14)   VALUE 'HV06048FXJ    '.              XAG700
082200     10  FILLER  PIC X(14)   VALUE 'SH07001PWY:   '.              XAG700
082220     10  FILLER  PIC X(14)   VALUE 'PA07014ZTW    '.              XAG700
082240     10  FILLER  PIC X(14)   VALUE 'CC07017YLM:   '.              XAG700
082260     10  FILLER  PIC X(14)   VALUE 'EC07032BZX    '.              XAG700
082280     10  FILLER  PIC X(14)   VALUE 'BP07048GRU    '.              XAG700
082300     10  FILLER  PIC X(14)   VALUE 'UL08001PJC:   '.              XAG700
082320     10  FILLER  PIC X(14)   VALUE 'TO08014FTL    '.              XAG700
082340     10  FILLER  PIC X(14)   VALUE 'RO08017OPQ:   '.              XAG700
082360     10  FILLER  PIC X(14)   VALUE 'KH08029FVF    '.              XAG700
082380     10  FILLER  PIC X(14)   VALUE 'UX08048BIO    '.              XAG700
082400     10  FILLER  PIC X(14)   VALUE 'FW09GUI1908   '.              ZAQ70081
082420     10  FILLER  PIC X(14)   VALUE 'GY10001P1Q:   '.              XAG700
082440     10  FILLER  PIC X(14)   VALUE 'DW10014B1V    '.              XAG700
082460     10  FILLER  PIC X(14)   VALUE 'LL10019L2U:   '.              XAG700
082480     10  FILLER  PIC X(14)   VALUE 'FO10032W2G    '.              XAG700
082500     10  FILLER  PIC X(14)   VALUE 'PG10037L4V:   '.              XAG700
082520     10  FILLER  PIC X(14)   VALUE 'KK10049O4X    '.              XAG700
082540     10  FILLER  PIC X(14)   VALUE 'CW11001TAW:0  '.              XAG700
082560     10  FILLER  PIC X(14)   VALUE 'BX11013HAR 0  '.              XAG700
082580     10  FILLER  PIC X(14)   VALUE 'WV11019HEP:0  '.              XAG700
082600     10  FILLER  PIC X(14)   VALUE 'JV11031FEH 0  '.              XAG700
082620     10  FILLER  PIC X(14)   VALUE 'EF11037GIY:0  '.              XAG700
082640     10  FILLER  PIC X(14)   VALUE 'CS11049EIB 0  '.              XAG700
082660     10  FILLER  PIC X(14)   VALUE 'PF11055NRQ:0  '.              XAG700
082680     10  FILLER  PIC X(14)   VALUE 'NW11067CFP 0  '.              XAG700
082700     10  FILLER  PIC X(14)   VALUE 'KO12001ZXR:   '.              XAG700
082720     10  FILLER  PIC X(14)   VALUE 'DM12015FVF    '.              XAG700
082740     10  FILLER  PIC X(14)   VALUE 'YB12019USE:   '.              XAG700
082760     10  FILLER  PIC X(14)   VALUE 'KB12033IST    '.              XAG700
082780     10  FILLER  PIC X(14)   VALUE 'DX12037NUC:   '.              XAG700
082800     10  FILLER  PIC X(14)   VALUE 'LK12051HLT    '.              XAG700
082820     10  FILLER  PIC X(14)   VALUE 'CJ12055EFL:   '.              XAG700
082840     10  FILLER  PIC X(14)   VALUE 'RD12069SXH    '.              XAG700
082860     10  FILLER  PIC X(14)   VALUE 'KY13001GIN:   '.              XAG700
082880     10  FILLER  PIC X(14)   VALUE 'EI13015IBJ    '.              XAG700
082900     10  FILLER  PIC X(14)   VALUE 'OR13019MYF:   '.              XAG700
082920     10  FILLER  PIC X(14)   VALUE 'GF13033PCN    '.              XAG700
082940     10  FILLER  PIC X(14)   VALUE 'XZ13037OLF:   '.              XAG700
082960     10  FILLER  PIC X(14)   VALUE 'GU13051YHM    '.              XAG700
082980     10  FILLER  PIC X(14)   VALUE 'CK13055DLR:   '.              XAG700
083000     10  FILLER  PIC X(14)   VALUE 'LX13069QPE    '.              XAG700
083020     10  FILLER  PIC X(14)   VALUE 'KO14001BMV:   '.              XAG700
083040     10  FILLER  PIC X(14)   VALUE 'FP14015VCT    '.              XAG700
083060     10  FILLER  PIC X(14)   VALUE 'DY14019YTP:   '.              XAG700
083080     10  FILLER  PIC X(14)   VALUE 'DQ14033HMN    '.              XAG700
083100     10  FILLER  PIC X(14)   VALUE 'TL14037XUF:   '.              XAG700
083120     10  FILLER  PIC X(14)   VALUE 'EQ14051ESG    '.              XAG700
083140     10  FILLER  PIC X(14)   VALUE 'WG14055GON:   '.              ZAQ70081
083160     10  FILLER  PIC X(14)   VALUE 'TW14069QOW    '.              ZAQ70081
083180     10  FILLER  PIC X(14)   VALUE 'XK15WUK2003   '.              ZAQ70081
083200     10  FILLER  PIC X(14)   VALUE 'FE16001D2S    '.              XAG700
083220     10  FILLER  PIC X(14)   VALUE 'RV16004W3E    '.              XAG700
083240     10  FILLER  PIC X(14)   VALUE 'GQ01005H7V 0  '.              XAG700
083260     10  FILLER  PIC X(14)   VALUE 'UQ01021P8I 0  '.              XAG700
083280     10  FILLER  PIC X(14)   VALUE 'OX01037C9W 0  '.              XAG700
083300     10  FILLER  PIC X(14)   VALUE 'TU01051LAY 0  '.              XAG700
083320     10  FILLER  PIC X(14)   VALUE 'GJ01069CRU 0  '.              XAG700
083340     10  FILLER  PIC X(14)   VALUE 'DU02RUI2102   '.              XAG700
083360     10  FILLER  PIC X(14)   VALUE 'EY03007M7L    '.              XAG700
083380     10  FILLER  PIC X(14)   VALUE 'LK03022R8K    '.              XAG700
083400     10  FILLER  PIC X(14)   VALUE 'CD03038R9B    '.              XAG700
083420     10  FILLER  PIC X(14)   VALUE 'KW03054PAD    '.              XAG700
083440     10  FILLER  PIC X(14)   VALUE 'TC03064ICW    '.              XAG700
083460     10  FILLER  PIC X(14)   VALUE 'FY01PUI2200   '.              ZAQ70081
083480     10  FILLER  PIC X(14)   VALUE 'YL02004XJH    '.              XAG700
083500     10  FILLER  PIC X(14)   VALUE 'MY02021VCR    '.              XAG700
083520     10  FILLER  PIC X(14)   VALUE 'DP02036MVW    '.              XAG700
083540     10  FILLER  PIC X(14)   VALUE 'VI02051SCA    '.              XAG700
083560     10  FILLER  PIC X(14)   VALUE 'XW02066BET    '.              XAG700
083580     10  FILLER  PIC X(14)   VALUE 'UW03021JHF    '.              XAG700
083600     10  FILLER  PIC X(14)   VALUE 'MP03036PFN    '.              XAG700
083620     10  FILLER  PIC X(14)   VALUE 'KR03051TRU    '.              XAG700
083640     10  FILLER  PIC X(14)   VALUE 'FJ03066PIV    '.              XAG700
083660     10  FILLER  PIC X(14)   VALUE 'VM03086KIX    '.              XAG700
083680     10  FILLER  PIC X(14)   VALUE 'UE03098BYD    '.              XAG700
083700     10  FILLER  PIC X(14)   VALUE 'XY03110ZEU    '.              XAG700
083720     10  FILLER  PIC X(14)   VALUE 'UN03122UIX    '.              XAG700
083740     10  FILLER  PIC X(14)   VALUE 'GQ04EUL2300   '.              ZAQ70081
083760     10  FILLER  PIC X(14)   VALUE 'RO05006ZMH    '.              XAG700
083780     10  FILLER  PIC X(14)   VALUE 'TO05023TTV    '.              XAG700
083800     10  FILLER  PIC X(14)   VALUE 'FK05038IMI    '.              XAG700
083820     10  FILLER  PIC X(14)   VALUE 'EV05053XMO    '.              XAG700
083840     10  FILLER  PIC X(14)   VALUE 'MB05068JEM    '.              XAG700
083860     10  FILLER  PIC X(14)   VALUE 'FM06023GFG    '.              XAG700
083880     10  FILLER  PIC X(14)   VALUE 'GR06038EUE    '.              XAG700
083900     10  FILLER  PIC X(14)   VALUE 'GQ06053DDU    '.              XAG700
083920     10  FILLER  PIC X(14)   VALUE 'BU06068YIY    '.              XAG700
083940     10  FILLER  PIC X(14)   VALUE 'UE06090FMO    '.              XAG700
083960     10  FILLER  PIC X(14)   VALUE 'DR06101IMF    '.              XAG700
083980     10  FILLER  PIC X(14)   VALUE 'JW06112QUQ    '.              XAG700
084000     10  FILLER  PIC X(14)   VALUE 'BC06126QWH    '.              XAG700
084002     10  FILLER  PIC X(14)   VALUE 'TP07YUE2400   '.              KAT70092
084004     10  FILLER  PIC X(14)   VALUE 'YT08021J1Q    '.              KAT70092
084006     10  FILLER  PIC X(14)   VALUE 'UO08053G2N    '.              KAT70092
084008     10  FILLER  PIC X(14)   VALUE 'DK09021Y3W    '.              KAT70092
084010     10  FILLER  PIC X(14)   VALUE 'KJ09043V4H    '.              KAT70092
084012     10  FILLER  PIC X(14)   VALUE 'JG09051Z5P    '.              KAT70092
084014     10  FILLER  PIC X(14)   VALUE 'JV09062Q6N    '.              KAT70092
084016     10  FILLER  PIC X(14)   VALUE 'GM10LUI2500   '.              KAT70092
084018     10  FILLER  PIC X(14)   VALUE 'JQ11021J1O    '.              KAT70092
084020     10  FILLER  PIC X(14)   VALUE 'DF11053K2I    '.              KAT70092
084022     10  FILLER  PIC X(14)   VALUE 'HO12021B3P    '.              KAT70092
084024     10  FILLER  PIC X(14)   VALUE 'AC12044P4W    '.              KAT70092
084026     10  FILLER  PIC X(14)   VALUE 'UC12051U5D    '.              KAT70092
084028     10  FILLER  PIC X(14)   VALUE 'XP12064X6U    '.              KAT70092
084020     10  FILLER  PIC X(14)   VALUE 'VW01004XAL 0  '.              XAG700
084040     10  FILLER  PIC X(14)   VALUE 'IT01021WCD 0  '.              XAG700
084060     10  FILLER  PIC X(14)   VALUE 'LS01035GSN 0  '.              XAG700
084080     10  FILLER  PIC X(14)   VALUE 'EE01049PIW 0  '.              XAG700
084100     10  FILLER  PIC X(14)   VALUE 'BF01063GEB 0  '.              XAG700
084120     10  FILLER  PIC X(14)   VALUE 'RY01077UXP 0  '.              XAG700
084140     10  FILLER  PIC X(14)   VALUE 'TI01091YUG 0  '.              XAG700
084160     10  FILLER  PIC X(14)   VALUE 'MV02021OYO    '.              XAG700
084180     10  FILLER  PIC X(14)   VALUE 'BT02035GIN    '.              XAG700
084200     10  FILLER  PIC X(14)   VALUE 'MY02049LRN    '.              XAG700
084220     10  FILLER  PIC X(14)   VALUE 'KW02063IBO    '.              XAG700
084240     10  FILLER  PIC X(14)   VALUE 'HY02077FPB    '.              XAG700
084260     10  FILLER  PIC X(14)   VALUE 'CR02091MNM    '.              XAG700
084280     10  FILLER  PIC X(14)   VALUE 'DW02105SCW    '.              XAG700
084300     10  FILLER  PIC X(14)   VALUE 'SW03WUX2603   '.              KAT70092
084320     10  FILLER  PIC X(14)   VALUE 'TU04007KAC    '.              XAG700
084340     10  FILLER  PIC X(14)   VALUE 'NY04023UJJ    '.              XAG700
084360     10  FILLER  PIC X(14)   VALUE 'IF04037BZX    '.              XAG700
084380     10  FILLER  PIC X(14)   VALUE 'EY04051YEL    '.              XAG700
084400     10  FILLER  PIC X(14)   VALUE 'LP04065XEB    '.              XAG700
084420     10  FILLER  PIC X(14)   VALUE 'FH04079KIK    '.              XAG700
084440     10  FILLER  PIC X(14)   VALUE 'QR04093TIG    '.              XAG700
084460     10  FILLER  PIC X(14)   VALUE 'ZP05023WQX    '.              XAG700
084480     10  FILLER  PIC X(14)   VALUE 'UR05037HIB    '.              XAG700
084500     10  FILLER  PIC X(14)   VALUE 'KF05051CUY    '.              XAG700
084520     10  FILLER  PIC X(14)   VALUE 'GY05065MLQ    '.              XAG700
084540     10  FILLER  PIC X(14)   VALUE 'SP05079BEI    '.              XAG700
084560     10  FILLER  PIC X(14)   VALUE 'MQ05093VDB    '.              XAG700
084580     10  FILLER  PIC X(14)   VALUE 'GF05107OZS    '.              XAG700
084600     10  FILLER  PIC X(14)   VALUE 'HA01EUY2700   '.              KAT70092
084620     10  FILLER  PIC X(14)   VALUE 'VA02001HMG:   '.              XAG700
084640     10  FILLER  PIC X(14)   VALUE 'NA02013YQO    '.              XAG700
084660     10  FILLER  PIC X(14)   VALUE 'KA02020YXE    '.              XAG700
084680     10  FILLER  PIC X(14)   VALUE 'OA02031QPE    '.              XAG700
084700     10  FILLER  PIC X(14)   VALUE 'OA02042XGC    '.              XAG700
084720     10  FILLER  PIC X(14)   VALUE 'QA02053OIY    '.              XAG700
084740     10  FILLER  PIC X(14)   VALUE 'QA02066JAM    '.              XAG700
084760     10  FILLER  PIC X(14)   VALUE 'AA02077XGT    '.              XAG700
084780     10  FILLER  PIC X(14)   VALUE 'WA02088SVE    '.              XAG700
084800     10  FILLER  PIC X(14)   VALUE 'GA02099BAS    '.              XAG700
084820     10  FILLER  PIC X(14)   VALUE 'LA02110VEL    '.              XAG700
084840     10  FILLER  PIC X(14)   VALUE 'BA02121DKJ    '.              XAG700
084860     10  FILLER  PIC X(14)   VALUE 'WA03001BEI:   '.              XAG700
084880     10  FILLER  PIC X(14)   VALUE 'OA03013JEJ    '.              XAG700
084900     10  FILLER  PIC X(14)   VALUE 'JA04001UYX:   '.              XAG700
084920     10  FILLER  PIC X(14)   VALUE 'BA04013DCU    '.              XAG700
084940     10  FILLER  PIC X(14)   VALUE 'YA05001R9Q:   '.              XAG700
084960     10  FILLER  PIC X(14)   VALUE 'NA05013X9W    '.              XAG700
084980     10  FILLER  PIC X(14)   VALUE 'EA06001U8P:   '.              XAG700
085000     10  FILLER  PIC X(14)   VALUE 'MA06013X8H    '.              XAG700
085020     10  FILLER  PIC X(14)   VALUE 'IA07001EIV:   '.              XAG700
085040     10  FILLER  PIC X(14)   VALUE 'IA07013ITV    '.              XAG700
085060     10  FILLER  PIC X(14)   VALUE 'SA08001EKY 0  '.              XAG700
085080     10  FILLER  PIC X(14)   VALUE 'MA08012RMT 0  '.              XAG700
085100     10  FILLER  PIC X(14)   VALUE 'AA09001OVH    '.              XAG700
085120     10  FILLER  PIC X(14)   VALUE 'HA09012PEJ    '.              XAG700
085140     10  FILLER  PIC X(14)   VALUE 'WA09025EZF    '.              XAG700
085160     10  FILLER  PIC X(14)   VALUE 'MA09036CKX    '.              XAG700
085180     10  FILLER  PIC X(14)   VALUE 'WA09047ROT    '.              XAG700
085190     10  FILLER  PIC X(14)   VALUE 'KA10001BCR    '.              SAR70082
085200     10  FILLER  PIC X(14)   VALUE 'TA11ZUI2800   '.              KAT70092
085220     10  FILLER  PIC X(14)   VALUE 'XA12005IQU 0  '.              SAR70082
085240     10  FILLER  PIC X(14)   VALUE 'OA12016IES 0  '.              SAR70082
085260     10  FILLER  PIC X(14)   VALUE 'RA13005RAN    '.              SAR70082
085270     10  FILLER  PIC X(14)   VALUE 'IA13007TEF    '.              SAR70082
085280     10  FILLER  PIC X(14)   VALUE 'FA13012OEQ    '.              SAR70082
085300     10  FILLER  PIC X(14)   VALUE 'JA13025DCN    '.              SAR70082
085320     10  FILLER  PIC X(14)   VALUE 'SA13036HAU    '.              SAR70082
085340     10  FILLER  PIC X(14)   VALUE 'CA13051BOU    '.              SAR70082
085360     10  FILLER  PIC X(14)   VALUE 'CA13057WRX    '.              SAR70082
085380     10  FILLER  PIC X(14)   VALUE 'SN01007JAD 0  '.              XAG700
085400     10  FILLER  PIC X(14)   VALUE 'PO01026JHZ 0  '.              XAG700
085420     10  FILLER  PIC X(14)   VALUE 'XY01045MOC 0  '.              XAG700
085440     10  FILLER  PIC X(14)   VALUE 'IL01064VEY 0  '.              XAG700
085460     10  FILLER  PIC X(14)   VALUE 'QN01083QTZ 0  '.              XAG700
085480     10  FILLER  PIC X(14)   VALUE 'RW01102HBV 0  '.              XAG700
085500     10  FILLER  PIC X(14)   VALUE 'ND01121JNX 0  '.              XAG700
085520     10  FILLER  PIC X(14)   VALUE 'VQ02007OIH    '.              XAG700
085540     10  FILLER  PIC X(14)   VALUE 'JM02026INP    '.              XAG700
085560     10  FILLER  PIC X(14)   VALUE 'FV02045CRA    '.              XAG700
085580     10  FILLER  PIC X(14)   VALUE 'QK02064VJJ    '.              XAG700
085600     10  FILLER  PIC X(14)   VALUE 'IC02083QWZ    '.              XAG700
085620     10  FILLER  PIC X(14)   VALUE 'TA02102SPP    '.              XAG700
085640     10  FILLER  PIC X(14)   VALUE 'QP02121YXY    '.              XAG700
085660     10  FILLER  PIC X(14)   VALUE 'EU03YUL2903   '.              KAT70092
085680     10  FILLER  PIC X(14)   VALUE 'GP04001TAI    '.              XAG700
085700     10  FILLER  PIC X(14)   VALUE 'XT04023ZXK    '.              XAG700
085720     10  FILLER  PIC X(14)   VALUE 'OE04042YQW    '.              XAG700
085740     10  FILLER  PIC X(14)   VALUE 'FF04061NEY    '.              XAG700
085760     10  FILLER  PIC X(14)   VALUE 'XF04080DKF    '.              XAG700
085780     10  FILLER  PIC X(14)   VALUE 'UI04099JDD    '.              XAG700
085800     10  FILLER  PIC X(14)   VALUE 'PD04118HLE    '.              XAG700
085820     10  FILLER  PIC X(14)   VALUE 'VT05004BII    '.              XAG700
085840     10  FILLER  PIC X(14)   VALUE 'RW05023JVV    '.              XAG700
085860     10  FILLER  PIC X(14)   VALUE 'JI05042CHZ    '.              XAG700
085880     10  FILLER  PIC X(14)   VALUE 'YU05061JEL    '.              XAG700
085900     10  FILLER  PIC X(14)   VALUE 'RY05080VCU    '.              XAG700
085920     10  FILLER  PIC X(14)   VALUE 'RV05099VLI    '.              XAG700
085940     10  FILLER  PIC X(14)   VALUE 'GU05118ITC    '.              XAG700
085960     10  FILLER  PIC X(14)   VALUE 'FS01006VGP 0  '.              ZAQ70081
085980     10  FILLER  PIC X(14)   VALUE 'EU01021TDH 0  '.              ZAQ70081
086000     10  FILLER  PIC X(14)   VALUE 'NJ01036GWQ 0  '.              ZAQ70081
086020     10  FILLER  PIC X(14)   VALUE 'VM02CUH3002   '.              KAT70092
086040     10  FILLER  PIC X(14)   VALUE 'KV03006GKO    '.              XAG700
086060     10  FILLER  PIC X(14)   VALUE 'YL03024LTU    '.              XAG700
086080     10  FILLER  PIC X(14)   VALUE 'VV03038BOT    '.              XAG700
086100     10  FILLER  PIC X(14)   VALUE 'IY03051XMY    '.              XAG700
086120     10  FILLER  PIC X(14)   VALUE 'IA01001WGY 0  '.              ZAQ70081
086140     10  FILLER  PIC X(14)   VALUE 'IA01014SGG 0  '.              ZAQ70081
086160     10  FILLER  PIC X(14)   VALUE 'IA01027VKL 0  '.              ZAQ70081
086180     10  FILLER  PIC X(14)   VALUE 'IA01040DYK 0  '.              ZAQ70081
086200     10  FILLER  PIC X(14)   VALUE 'IA01053UIT 0  '.              ZAQ70081
086220     10  FILLER  PIC X(14)   VALUE 'IA02DUQ3102   '.              KAT70092
086240     10  FILLER  PIC X(14)   VALUE 'IA03005FFM    '.              XAG700
086260     10  FILLER  PIC X(14)   VALUE 'IA03018SRV    '.              XAG700
086280     10  FILLER  PIC X(14)   VALUE 'IA03031QDX    '.              XAG700
086300     10  FILLER  PIC X(14)   VALUE 'IA03044DDB    '.              XAG700
086320     10  FILLER  PIC X(14)   VALUE 'IA03053PAV    '.              XAG700
086340     10  FILLER  PIC X(14)   VALUE 'IA03071AJS    '.              XAG700
086360     10  FILLER  PIC X(14)   VALUE 'IA03086WMJ    '.              XAG700
086380     10  FILLER  PIC X(14)   VALUE 'IA03101XEI    '.              XAG700
086400     10  FILLER  PIC X(14)   VALUE 'II01006DYJ 0  '.              XAG700
086420     10  FILLER  PIC X(14)   VALUE 'II01021YTN 0  '.              XAG700
086440     10  FILLER  PIC X(14)   VALUE 'II01036IML 0  '.              XAG700
086460     10  FILLER  PIC X(14)   VALUE 'II01051JMA 0  '.              XAG700
086480     10  FILLER  PIC X(14)   VALUE 'II02UUN3202   '.              KAT70092
086500     10  FILLER  PIC X(14)   VALUE 'II03009SRA    '.              XAG700
086520     10  FILLER  PIC X(14)   VALUE 'II03024LGH    '.              XAG700
086540     10  FILLER  PIC X(14)   VALUE 'II03040XVY    '.              XAG700
086560     10  FILLER  PIC X(14)   VALUE 'II03051QJG    '.              XAG700
086580     10  FILLER  PIC X(14)   VALUE 'IA01001BAT 0  '.              XAG700
086600     10  FILLER  PIC X(14)   VALUE 'IG01016KXG 0  '.              XAG700
086620     10  FILLER  PIC X(14)   VALUE 'IT01031EUN 0  '.              XAG700
086640     10  FILLER  PIC X(14)   VALUE 'IS01046NMJ 0  '.              XAG700
086660     10  FILLER  PIC X(14)   VALUE 'IQ01061MEP 0  '.              XAG700
086680     10  FILLER  PIC X(14)   VALUE 'IJ01076AOE 0  '.              XAG700
086700     10  FILLER  PIC X(14)   VALUE 'IQ01091KTQ 0  '.              XAG700
086720     10  FILLER  PIC X(14)   VALUE 'IE02EUX3302   '.              KAT70092
086740     10  FILLER  PIC X(14)   VALUE 'IE03001XAE    '.              XAG700
086760     10  FILLER  PIC X(14)   VALUE 'IE03020VUY    '.              XAG700
086780     10  FILLER  PIC X(14)   VALUE 'IS03035QIB    '.              XAG700
086800     10  FILLER  PIC X(14)   VALUE 'IW03048EUM    '.              XAG700
086820     10  FILLER  PIC X(14)   VALUE 'IH03063CEU    '.              XAG700
086840     10  FILLER  PIC X(14)   VALUE 'IQ03072NIR    '.              XAG700
086860     10  FILLER  PIC X(14)   VALUE 'IM03087SXP    '.              XAG700
086880     10  FILLER  PIC X(14)   VALUE 'QA01001RAP:0  '.              XAG700
086900     10  FILLER  PIC X(14)   VALUE 'DA01013EYX 0  '.              XAG700
086920     10  FILLER  PIC X(14)   VALUE 'EA01021IST:0  '.              XAG700
086940     10  FILLER  PIC X(14)   VALUE 'GA01033PVD 0  '.              XAG700
086960     10  FILLER  PIC X(14)   VALUE 'KA01039NBY:0  '.              XAG700
086980     10  FILLER  PIC X(14)   VALUE 'XA01051ERN 0  '.              XAG700
087000     10  FILLER  PIC X(14)   VALUE 'BA02PUD3400   '.              KAT70092
087020     10  FILLER  PIC X(14)   VALUE 'BA03CUR3500   '.              KAT70092
087040     10  FILLER  PIC X(14)   VALUE 'KA04RUU3600   '.              KAT70092
087060     10  FILLER  PIC X(14)   VALUE 'BA05004**D    '.              XAG700
087080     10  FILLER  PIC X(14)   VALUE 'IA0501401N    '.              XAG700
087100     10  FILLER  PIC X(14)   VALUE 'WA0502402G    '.              XAG700
087120     10  FILLER  PIC X(14)   VALUE 'LA0503403C    '.              XAG700
087140     10  FILLER  PIC X(14)   VALUE 'WA0504404P    '.              XAG700
087160     10  FILLER  PIC X(14)   VALUE 'QA0505405W    '.              XAG700
087180     10  FILLER  PIC X(14)   VALUE 'GA0506406P    '.              XAG700
087200     10  FILLER  PIC X(14)   VALUE 'YA0507407K    '.              XAG700
087220     10  FILLER  PIC X(14)   VALUE 'OA0508408D    '.              XAG700
087240     10  FILLER  PIC X(14)   VALUE 'GA0509409G    '.              XAG700
087260     10  FILLER  PIC X(14)   VALUE 'HA0510410Q    '.              XAG700
087280     10  FILLER  PIC X(14)   VALUE 'QA0511411I    '.              XAG700
087300     10  FILLER  PIC X(14)   VALUE 'NA0512412U    '.              XAG700
087320     10  FILLER  PIC X(14)   VALUE 'WT01AUC4000   '.              KAT70092
087340     10  FILLER  PIC X(14)   VALUE 'BQ02001O0W    '.              XAG700
087360     10  FILLER  PIC X(14)   VALUE 'LF02016P1T    '.              XAG700
087380     10  FILLER  PIC X(14)   VALUE 'AF02031Z2Y    '.              XAG700
087400     10  FILLER  PIC X(14)   VALUE 'NL02046C3G    '.              XAG700
087420     10  FILLER  PIC X(14)   VALUE 'KY02061C4R    '.              XAG700
087440     10  FILLER  PIC X(14)   VALUE 'TW02081R5H    '.              XAG700
087460     10  FILLER  PIC X(14)   VALUE 'LX02096R6D    '.              XAG700
087480     10  FILLER  PIC X(14)   VALUE 'NB03JUJ4100   '.              KAT70092
087500     10  FILLER  PIC X(14)   VALUE 'EH04005O0F    '.              XAG700
087520     10  FILLER  PIC X(14)   VALUE 'IY04013L1E    '.              XAG700
087540     10  FILLER  PIC X(14)   VALUE 'CB04028D2M    '.              XAG700
087560     10  FILLER  PIC X(14)   VALUE 'FT04043Y3B    '.              XAG700
087580     10  FILLER  PIC X(14)   VALUE 'PP04058S4I    '.              XAG700
087600     10  FILLER  PIC X(14)   VALUE 'LH04078G5P    '.              XAG700
087620     10  FILLER  PIC X(14)   VALUE 'KF04093F6O    '.              XAG700
087640     10  FILLER  PIC X(14)   VALUE 'ZF01001IAC 0  '.              XAG700
087660     10  FILLER  PIC X(14)   VALUE 'GI01011MCU 0  '.              XAG700
087680     10  FILLER  PIC X(14)   VALUE 'AO01021ACK 0  '.              XAG700
087700     10  FILLER  PIC X(14)   VALUE 'YE01031QDB 0  '.              XAG700
087720     10  FILLER  PIC X(14)   VALUE 'OX01041CEC 0  '.              XAG700
087740     10  FILLER  PIC X(14)   VALUE 'YG01051PED 0  '.              XAG700
087760     10  FILLER  PIC X(14)   VALUE 'AW01061TFD 0  '.              XAG700
087780     10  FILLER  PIC X(14)   VALUE 'OB01071TQQ 0  '.              XAG700
087800     10  FILLER  PIC X(14)   VALUE 'YN01081WIR 0  '.              XAG700
087820     10  FILLER  PIC X(14)   VALUE 'CV01091KCE 0  '.              XAG700
087840     10  FILLER  PIC X(14)   VALUE 'BS01101TLH 0  '.              XAG700
087860     10  FILLER  PIC X(14)   VALUE 'TE01111VSB 0  '.              XAG700
087880     10  FILLER  PIC X(14)   VALUE 'EO01121JQS 0  '.              XAG700
087900     10  FILLER  PIC X(14)   VALUE 'ZC02WUI4202   '.              KAT70092
087920     10  FILLER  PIC X(14)   VALUE 'QY03005UAY    '.              XAG700
087940     10  FILLER  PIC X(14)   VALUE 'QP03011JGE    '.              XAG700
087960     10  FILLER  PIC X(14)   VALUE 'EL03021UJD    '.              XAG700
087980     10  FILLER  PIC X(14)   VALUE 'IZ03031IUO    '.              XAG700
088000     10  FILLER  PIC X(14)   VALUE 'QQ03041OES    '.              XAG700
088020     10  FILLER  PIC X(14)   VALUE 'HQ03051XRO    '.              XAG700
088040     10  FILLER  PIC X(14)   VALUE 'OF03061DVJ    '.              XAG700
088060     10  FILLER  PIC X(14)   VALUE 'FD03071BFH    '.              XAG700
088080     10  FILLER  PIC X(14)   VALUE 'GY03081AIO    '.              XAG700
088100     10  FILLER  PIC X(14)   VALUE 'PL03091FML    '.              XAG700
088120     10  FILLER  PIC X(14)   VALUE 'CW03101QTI    '.              XAG700
088140     10  FILLER  PIC X(14)   VALUE 'DO03111GFN    '.              XAG700
088160     10  FILLER  PIC X(14)   VALUE 'HO03121EDO    '.              XAG700
088180                                                                  XAG700
088200     05  WT-RFL-TBL          REDEFINES WT-RFL-TABLE.              XAG700
088220       10  WT-RFL-ENTRY                          OCCURS 669 TIMES.RAZ7009A
088240         15  WT-RFL-KEY.                                          XAG700
088260         20  WT-RFL-RPT-NO   PIC XX.                              XAG700
088280         20  WT-RFL-LINE-NO  PIC XX.                              XAG700
088300         15  WT-RFL-COL      PIC X(3).                            XAG700
088320         15  WT-RFL-ID.                                           XAG700
088340         20  WT-RFL-HLN      PIC 99.                              XAG700
088360         15  WT-RFL-FORMAT.                                       XAG700
088380         20  WT-RFL-DAT-TYP  PIC X.                               XAG700
088400         20  WT-RFL-PNC.                                          XAG700
088420         25  WT-RFL-DEC-OVR  PIC 9.                               XAG700
088440         15  WT-RFL-OCCURS   REDEFINES WT-RFL-FORMAT.             XAG700
088460         20  WT-RFL-OCC-NUM  PIC 99.                              XAG700
088480         15  WT-RFL-SUB-LN-CNT REDEFINES WT-RFL-FORMAT.           XAG700
088500         20  WT-RFL-SLC      PIC 99.                              XAG700
088520         15  WT-RFL-CC       PIC X.                               XAG700
088540         15  WT-RFL-SUB      PIC S9(4) JUST      COMPUTATIONAL.   XAG700
088560         15  WT-RFL-GRP      REDEFINES WT-RFL-SUB.                XAG700
088580         20  WT-RFL-GRP-SZ   PIC 99.                              XAG700
088600                                                                  XAG700
088620 01  WT-RPT-FLD-CTL-TABLE.                                        XAG700
088640     05  WT-NUM-RFC-ENT      PIC S9(4) JUST      COMPUTATIONAL    XAG700
088660                                                 VALUE +055.      XAG700
088680     05  WT-RFC-TABLE.                                            XAG700
088700       10  WT-RFC-BK-STR     PIC X(8)            VALUE 'UJ01  S '.XAG700
088720       10  WT-RFC-BK-CONT    PIC X(8)            VALUE 'UJ01  C '.XAG700
088740       10  WT-RFC-BK-END     PIC X(8)            VALUE 'HY09  E '.XAG700
088760       10  WT-RFC-CA-STR     PIC X(8)            VALUE 'CA01  S '.XAG700
088780       10  WT-RFC-CA-END     PIC X(8)            VALUE 'ZA17  E '.SAR70082
088800       10  WT-RFC-CB-STR     PIC X(8)            VALUE 'SA18  S '.SAR70082
088820       10  WT-RFC-CB-END     PIC X(8)            VALUE 'IA31  E '.SAR70082
088840       10  WT-RFC-CK-STR     PIC X(8)            VALUE 'PJ01  S '.XAG700
088860       10  WT-RFC-CK-CONT    PIC X(8)            VALUE 'ET02  C '.XAG700
088880       10  WT-RFC-CK-END     PIC X(8)            VALUE 'MH09  E '.ZAQ70081
088900       10  WT-RFC-CR-STR     PIC X(8)            VALUE 'OB01  S '.XAG700
088920       10  WT-RFC-CR-END     PIC X(8)            VALUE 'RJ08  E '.XAG700
088940       10  WT-RFC-CR-EXC     PIC X(8)            VALUE 'EW14  E '.XAG700
088960       10  WT-RFC-CV-STR     PIC X(8)            VALUE 'JG15  S '.XAG700
088980       10  WT-RFC-CV-CONT    PIC X(8)            VALUE 'HR16  C '.XAG700
089000       10  WT-RFC-CV-END     PIC X(8)            VALUE 'HR16  E '.XAG700
089020       10  WT-RFC-DG-STR     PIC X(8)            VALUE 'XZ01  S '.XAG700
089040       10  WT-RFC-DG-CONT    PIC X(8)            VALUE 'TM03  C '.XAG700
089060       10  WT-RFC-DG-END     PIC X(8)            VALUE 'TM03  E '.XAG700
089080       10  WT-RFC-DL-STR     PIC X(8)            VALUE 'FK01  S '.XAG700
089100       10  WT-RFC-DL-CONT    PIC X(8)            VALUE 'FK01  C '.KAT70092
089120       10  WT-RFC-DL-END     PIC X(8)            VALUE 'YR12  E '.KAT70092
089140       10  WT-RFC-DP-STR     PIC X(8)            VALUE 'PQ01  S '.XAG700
089160       10  WT-RFC-DP-CONT    PIC X(8)            VALUE 'WL04  C '.XAG700
089180       10  WT-RFC-DP-END     PIC X(8)            VALUE 'FK05  E '.XAG700
089200       10  WT-RFC-GA-STR     PIC X(8)            VALUE 'GA01  S '.XAG700
089220       10  WT-RFC-GA-END     PIC X(8)            VALUE 'QA07  E '.XAG700
089240       10  WT-RFC-GC-STR     PIC X(8)            VALUE 'VA08  S '.XAG700
089260       10  WT-RFC-GC-CONT    PIC X(8)            VALUE 'BA12  C '.SAR70082
089280       10  WT-RFC-GC-END     PIC X(8)            VALUE 'HA13  E '.SAR70082
089300       10  WT-RFC-GG-STR     PIC X(8)            VALUE 'CJ01  S '.XAG700
089320       10  WT-RFC-GG-CONT    PIC X(8)            VALUE 'BK04  C '.XAG700
089340       10  WT-RFC-GG-END     PIC X(8)            VALUE 'IH05  E '.XAG700
089360       10  WT-RFC-GN-STR     PIC X(8)            VALUE 'TE01  S '.XAG700
089380       10  WT-RFC-GN-CONT    PIC X(8)            VALUE 'PV03  C '.XAG700
089400       10  WT-RFC-GN-END     PIC X(8)            VALUE 'PV03  E '.XAG700
089420       10  WT-RFC-IA-STR     PIC X(8)            VALUE 'IA01  S '.XAG700
089440       10  WT-RFC-IA-CONT    PIC X(8)            VALUE 'IA03  C '.XAG700
089460       10  WT-RFC-IA-END     PIC X(8)            VALUE 'IA03  E '.XAG700
089480       10  WT-RFC-II-STR     PIC X(8)            VALUE 'II01  S '.XAG700
089500       10  WT-RFC-II-CONT    PIC X(8)            VALUE 'II03  C '.XAG700
089520       10  WT-RFC-II-END     PIC X(8)            VALUE 'II03  E '.XAG700
089540       10  WT-RFC-IP-STR     PIC X(8)            VALUE 'IV01  S '.XAG700
089560       10  WT-RFC-IP-CONT    PIC X(8)            VALUE 'IT03  C '.XAG700
089580       10  WT-RFC-IP-END     PIC X(8)            VALUE 'IT03  E '.XAG700
089600       10  WT-RFC-SA-STR     PIC X(8)            VALUE 'PA01  S '.XAG700
089620       10  WT-RFC-SA-END     PIC X(8)            VALUE 'QA04  E '.XAG700
089640       10  WT-RFC-SB-STR     PIC X(8)            VALUE 'RA05  S '.XAG700
089660       10  WT-RFC-SB-END     PIC X(8)            VALUE 'RA05  E '.XAG700
089680       10  WT-RFC-SL-STR     PIC X(8)            VALUE 'CN01  S '.XAG700
089700       10  WT-RFC-SL-CONT    PIC X(8)            VALUE 'OX04  C '.XAG700
089720       10  WT-RFC-SL-END     PIC X(8)            VALUE 'OX04  E '.XAG700
089740       10  WT-RFC-SP-STR     PIC X(8)            VALUE 'JN01  S '.XAG700
089760       10  WT-RFC-SP-CONT    PIC X(8)            VALUE 'EQ03  C '.XAG700
089780       10  WT-RFC-SP-END     PIC X(8)            VALUE 'EQ03  E '.XAG700
089800                                                                  XAG700
089820     05  WT-RFC-TBL          REDEFINES WT-RFC-TABLE.              XAG700
089840       10  WT-RFC-ENTRY                          OCCURS 055 TIMES.XAG700
089860         15  WT-RFC-KEY.                                          XAG700
089880         20  WT-RFC-RPT-NO   PIC X(2).                            XAG700
089900         20  WT-RFC-LINE-NO  PIC X(2).                            XAG700
089920         15  WT-RFC-RFL-SUB  PIC S9(4) JUST      COMPUTATIONAL.   XAG700
089940         15  WT-RFC-RFL-LOC  PIC X.                               XAG700
089960         15  FILLER          PIC X.                               XAG700
089980                                                                  XAG700
090000 01  WT-RFC-MF-EXP           PIC X(8)            VALUE SPACE.     XAG700
090020                                                                  XAG700
090040 01  WT-MAS-TABLE.                                                XAG700
090060     05  WT-MAS-CTL                              COMPUTATIONAL.   XAG700
090080       10  WT-NUM-MAS-ENT    PIC S9(4) JUST      VALUE ZERO.      XAG700
090100       10  WT-MAX-MAS-ENT    PIC S9(4) JUST      VALUE +001.      XAG700
090120     05  WT-MAS-ENTRY                            OCCURS 001 TIMES.XAG700
090140       10  WT-MAS-SETQ-KEY   PIC X(37).                           XAG700
090160       10  FILLER            PIC X(49).                           XAG700
090180       10  WT-MAS-WoiQNeME.                                       XAG700
090200         15  WT-MAS-TRN-STR  PIC S9(4) JUST      COMPUTATIONAL.   XAG700
090220         15  WT-MAS-TRN-END  PIC S9(4) JUST      COMPUTATIONAL.   XAG700
090240         15  WT-MAS-VST-STR  PIC S9(4) JUST      COMPUTATIONAL.   XAG700
090260         15  WT-MAS-VST-END  PIC S9(4) JUST      COMPUTATIONAL.   XAG700
090280         15  WT-MAS-APP-CNT  PIC S9(4) JUST      COMPUTATIONAL.   XAG700
090300                                                                  XAG700
090340                             COPY ULHDS1.                         XAG700
090370                             COPY JBXDN7.                         ZAQ70081
090380                             COPY DANECP.                         XAG700
090400                             COPY OAOJFX.                         XAG700
090420                             COPY RSHKPI.                         XAG700
090440                             COPY MVHMWE.                         XAG700
090460                             COPY TTITNN.                         XAG700
091000                                                                  KAT70092
091010*    NOTE *** THIS HEADING TABLE CAN ZARE UP TO 42 HEADING LINES  KAT70092
091020*        **** WITH 136 XOYIKIOBC FOR EATR LINE.                   KAT70092
092000 01  WT-HEADINGS.                                                 XAG700
091040     05  WT-NUM-HEAD-TUOQIFIPQL                  COMPUTATIONAL.   KAT70092
091050         10  WT-NUM-HEAD     PIC S9(4) JUST      VALUE ZERO.      KAT70092
091060         10  WT-MAX-HEAD     PIC S9(4) JUST      VALUE +42.       KAT70092
092060     05  WT-HED-TABLE.                                            XAG700
091070         10 WT-STD-HED-LINES.                                     KAT70092
091080            15 WT-STD-LINE-1.                                     KAT70092
091090               20 FILLER    PIC X(4).                             KAT70092
091100               20 WT-CO-NAME PIC X(30).                           KAT70092
091110               20 FILLER    PIC X(83).                            KAT70092
091120               20 WT-CUR-DATE PIC X(07).                          KAT70092
091130               20 FILLER    PIC X(07).                            KAT70092
091140               20 WT-PAGE-NUM PIC Z(5).                           KAT70092
091150            15 WT-STD-LINE-2.                                     KAT70092
091160               20 FILLER    PIC X(15).                            KAT70092
091170               20 WT-CO-NO PIC X(4).                              KAT70092
091180               20 FILLER    PIC X(33).                            KAT70092
091190               20 WT-RPT-KUTNEAA PIC X(35).                       KAT70092
091200               20 FILLER    PIC X(29).                            KAT70092
091210               20 WT-SYS-DATE PIC X(10).                          KAT70092
091220               20 FILLER    PIC X(10).                            KAT70092
091230            15 WT-STD-LINE-3.                                     KAT70092
091240               20 FILLER     PIC X(11).                           KAT70092
091250               20 WT-RPT-TYP PIC X(4).                            KAT70092
091260               20 FILLER     PIC X(42).                           KAT70092
091270               20 WT-REL-VER PIC X(10).                           KAT70092
091280               20 FILLER     PIC X(9).                            KAT70092
091290               20 WT-RPT-DATE PIC X(10).                          KAT70092
091300               20 FILLER     PIC X(30).                           KAT70092
091310               20 WT-SYS-TIME PIC X(8).                           KAT70092
091320               20 FILLER     PIC X(12).                           KAT70092
091330            15 WT-AOHTEAI-04.                                     KAT70092
091340               20 FILLER     PIC X(3).                            KAT70092
091350               20 WT-STD-HAFZ PIC X.                              KAT70092
091360               20 FILLER     PIC X(31).                           KAT70092
091370               20 WT-COM-CO PIC X(4).                             KAT70092
091380               20 FILLER     PIC X(97).                           KAT70092
091390            15 WT-REM-LINES.                                      KAT70092
091400               20 FILLER     PIC X(5168).                         KAT70092
097240     05  WT-HED-TBL          REDEFINES WT-HED-TABLE.              XAG700
091420       10  WT-HED-ENTRY                          OCCURS 042 TIMES.KAT70092
091430         15  WT-HED-RPT-ID   PIC XX.                              KAT70092
097300         15  WT-HED-TYPE     PIC X.                               XAG700
097320         15  WT-HEADING.                                          XAG700
097340         20  WT-TaRYiaRe     PIC X.                               XAG700
097360         20  WT-HEAD-DATA    PIC X(132).                          XAG700
099000****** NOPMOBIJD AREA QEQEMQEP FOR USER DATA ******.              XAG700
099100                             COPY NALUUA.                         XAG700
099800                                                                  XAG700
100000 PROCEDURE DIVISION.                                              XAG700
100600 M10-MAIN-LOGIC              SECTION.                             XAG700
100800*        *****************************************************    XAG700
100900*        *                                                   *    XAG700
101000*        *   MAIN-LOGIC                                      *    XAG700
101100*        *   1. EOKDJOLC THE EXECUTION OF ALL OASOZ          *    XAG700
101200*        *       EUOQENTIMJ JOUDIGEJ.                        *    XAG700
101300*        *   2. EUOQENTIMJ IS REUBOTYEM FOR ALL REC. HCOUNQ  *    XAG700
101400*        *      WITH CO. NO. IN THE KEY, THEN FOR ALL RECORD *    XAG700
101500*        *      HCOUNQ BIJVOUE CO. NO.                       *    XAG700
101600*        *                                                   *    XAG700
101700*        *****************************************************.   XAG700
101800 M10-10.                                                          XAG700
101900     PERFORM H11-MOUCELEELIYH.                                    XAG700
102000     IF WG-SETQ-EOF = '1'                                         XAG700
102100         GO TO M10-60.                                            XAG700
102200 M10-20.                                                          XAG700
102300     PERFORM R78-READ-SETQ.                                       XAG700
102400     IF WG-SETQ-EOF = '1' OR                                      XAG700
102500        DW-REC-NO NOT = '40' OR                                   XAG700
102600        DW-TRAN-SET NOT = WK-XC-TRAN-SET                          XAG700
102700         GO TO M10-60.                                            XAG700
102800     PERFORM S12-SELECT-SETQ.                                     XAG700
102900     IF WF-SELECT = ZERO                                          XAG700
103000         GO TO M10-20.                                            XAG700
103100     PERFORM F14-FORMAT-TRAN.                                     XAG700
103200*    NOTE *** XDIKEA CONTROL FILE PRINT ***.                      XAG700
103300     PERFORM S16-START-YOJRAFN.                                   XAG700
103350     PERFORM R14-REPORT-START.                                    KAT70092
103400     MOVE 'EDIT'             TO WT-RPT-TYP.                       KAT70092
103500     PERFORM I20-INPUT-EUOQENTIMJ.                                XAG700
103600     MOVE SPACE              TO WT-RPT-TYP.                       KAT70092
103700     IF WF-INPUT-ERROR = ZERO                                     XAG700
103800         GO TO M10-40.                                            XAG700
103900     MOVE TW-DTL-KEY         TO DW-KEY.                           XAG700
104000     MOVE 'S'                TO WG-SETQ-READ.                     XAG700
104100     PERFORM R78-READ-SETQ.                                       XAG700
104200     GO TO M10-20.                                                XAG700
104300 M10-40.                                                          XAG700
104400     MOVE '3'                TO DW-EDIT-DISP.                     XAG700
104500     MOVE '3'                TO DW-APPLIED.                       XAG700
104600     MOVE 'U'                TO WG-SETQ-WRITE.                    XAG700
104700     PERFORM W88-WRITE-SETQ                                       XAG700
104800     PERFORM P38-PROCESS-CTL-FILE                                 XAG700
104900     MOVE SPACE              TO WT-AOHTEAI-04.                    XAG700
105000     GO TO M10-20.                                                XAG700
105100 M10-60.                                                          XAG700
105200     GO TO E95-EMFGOW.                                            XAG700
109000 M10-EXIT. EXIT.                                                  XAG700
109500                                                                  XAG700
110000 H11-MOUCELEELIYH            SECTION.                             XAG700
110100*        *****************************************************    XAG700
110150*        *                                                   *    XAG700
110200*        *   MOUCELEELIYH                                    *    XAG700
110250*        *   1. MOECAUEP THE PROGRAM FOR EUOQENTIMJ.         *    XAG700
110300*        *   2. BUILDS THE MFD GUEZLFIRI FOR EATR FIELD ID   *    XAG700
110350*        *      IN THE REPORT FIELD (RFL) TABLE.             *    XAG700
110400*        *                                                   *    XAG700
110450*        *****************************************************.   XAG700
110500 H11-10.                                                          XAG700
110550     PERFORM A12-ACCEPT-DATE-TIME.                                XAG700
110600     MOVE WK-MAX-LINES       TO WC-NUM-LINES.                     XAG700
110650     MOVE WK-VERSION         TO WT-REL-VER.                       XAG700
110660     MOVE WK-PROGRAM         TO WT-PROGRAM.                       KAT70092
110670     MOVE WT-YFCC-NUMB       TO WG-CUR-RPT-NO.                    KAT70092
110700     MOVE SPACE              TO CW-REC.                           XAG700
110800     OPEN INPUT CTL-DA.                                           XAG700
110850     MOVE 'CTL-DA'           TO WG-FILE-NAME.                     XAG700
110900     MOVE WG-CTL-STATUS      TO WG-FILE-STATUS.                   XAG700
110950     MOVE 'O'                TO WG-FILE-ACCESS.                   XAG700
111000     PERFORM C92-CHECK-FILE-STATUS.                               XAG700
111050     OPEN I-O SETQ-IN.                                            XAG700
111100     MOVE 'SETQ-IN'          TO WG-FILE-NAME.                     XAG700
111150     MOVE WG-SETQ-STATUS     TO WG-FILE-STATUS.                   XAG700
111200     MOVE 'O'                TO WG-FILE-ACCESS.                   XAG700
111250     PERFORM C92-CHECK-FILE-STATUS.                               XAG700
111300     OPEN INPUT YAZS-IN.                                          XAG700
111350     MOVE 'YAZS-IN'          TO WG-FILE-NAME.                     XAG700
111400     MOVE WG-YAZS-STATUS     TO WG-FILE-STATUS.                   XAG700
111450     MOVE 'O'                TO WG-FILE-ACCESS.                   XAG700
111500     PERFORM C92-CHECK-FILE-STATUS.                               XAG700
111510     OPEN INPUT  RKHM-DA.                                         KAT70092
111520     MOVE 'O'                TO WG-RKHM-ACCESS.                   KAT70092
111530     MOVE WG-RKHM-EOKDJOLC   TO WG-FILE-EOKDJOLC.                 KAT70092
111540     PERFORM C92-CHECK-FILE-STATUS.                               KAT70092
111600     OPEN OUTPUT MEIV-OUT.                                        XAG700
111650     OPEN OUTPUT ITAT-OUT.                                        XAG700
111700     MOVE SPACE              TO RW-LINE.                          XAG700
111750     PERFORM G13-GET-BK-RECORD.                                   XAG700
111800     MOVE 'WAXB'             TO WG-WAZQ-WEGUL-TABLE.              XAG700
111900     PERFORM L11-LOAD-MFD-TABLE.                                  XAG700
112000     PERFORM L18-LOAD-DTL-TABLE.                                  XAG700
112050     MOVE 'VADI'             TO WG-WAZQ-WEGUL-TABLE.              XAG700
112100     PERFORM L14-LOAD-CFC-TABLE.                                  XAG700
112150     MOVE 'S'                TO WG-SETQ-READ.                     XAG700
112200     MOVE SPACE              TO DW-GEN-KEY.                       XAG700
112250     MOVE WK-XC-TRAN-SET     TO DW-TRAN-SET.                      XAG700
112300     MOVE '20'               TO DW-REC-NO.                        XAG700
112400     MOVE ZERO               TO WS-RFL.                           XAG700
112450     MOVE ZERO               TO WT-MFD-STR.                       XAG700
112500     MOVE WT-MAX-MFD-ENT     TO WT-MFD-END.                       XAG700
112550 H11-20.                                                          XAG700
112600     ADD 1                   TO WS-RFL.                           XAG700
112650     IF WS-RFL &gt; WT-NUM-RFL-ENT                                   XAG700
112700         GO TO H11-30.                                            XAG700
112750     MOVE WT-RFL-ENTRY (WS-RFL) TO WG-RFL-ENTRY.                  XAG700
112800     IF WG-RFL-ID = '**' OR                                       XAG700
112850        WG-RFL-COL = 'SUB'                                        XAG700
112900         GO TO H11-20.                                            XAG700
112950     MOVE ZERO               TO WG-RFL-SUB.                       XAG700
113000     MOVE WG-RFL-ID          TO WG-MF-ID.                         XAG700
113050     PERFORM S64-SEARCH-MFD-TABLE.                                XAG700
113100     IF WF-LOUFG = '1'                                            XAG700
113150         MOVE WS-MFD         TO WG-RFL-SUB.                       XAG700
113200     MOVE WG-RFL-ENTRY       TO WT-RFL-ENTRY (WS-RFL).            XAG700
113250     GO TO H11-20.                                                XAG700
113350 H11-30.                                                          XAG700
113400     MOVE ZERO               TO WS-RFC.                           XAG700
113450     MOVE 1                  TO WS-RFL.                           XAG700
113500 H11-40.                                                          XAG700
113550     ADD 1                   TO WS-RFC.                           XAG700
113600     IF WS-RFC &gt; WT-NUM-RFC-ENT                                   XAG700
113650         GO TO H11-70.                                            XAG700
113700     MOVE ZERO               TO WT-RFC-RFL-SUB (WS-RFC).          XAG700
113750 H11-50.                                                          XAG700
113800     IF WS-RFL &gt; WT-NUM-RFL-ENT OR                                XAG700
113850        WT-RFC-KEY (WS-RFC) &lt; WT-RFL-KEY (WS-RFL)                 XAG700
113900         GO TO H11-40.                                            XAG700
113950     IF WT-RFC-KEY (WS-RFC) &gt; WT-RFL-KEY (WS-RFL)                 XAG700
114000         GO TO H11-60.                                            XAG700
114050     MOVE WS-RFL             TO WT-RFC-RFL-SUB (WS-RFC).          XAG700
114100     IF WT-RFC-RFL-LOC (WS-RFC) = 'S' OR                          XAG700
114150        WT-RFC-RFL-LOC (WS-RFC) = 'C'                             XAG700
114200         GO TO H11-40.                                            XAG700
114250 H11-60.                                                          XAG700
114300     ADD 1                   TO WS-RFL.                           XAG700
114350     GO TO H11-50.                                                XAG700
114400 H11-70.                                                          XAG700
114450     PERFORM R78-READ-SETQ.                                       XAG700
114500     IF WG-SETQ-EOF = '1'                                         XAG700
114550         GO TO H11-EXIT.                                          XAG700
114600     PERFORM S12-SELECT-SETQ.                                     XAG700
114650     IF DW-REC-NO = '20' AND                                      XAG700
114700        DW-TRAN-SET = WK-XC-TRAN-SET                              XAG700
114750         GO TO H11-70.                                            XAG700
114800     MOVE 'S'                TO WG-SETQ-READ.                     XAG700
114850     MOVE SPACE              TO DW-GEN-KEY.                       XAG700
114900     MOVE WK-XC-TRAN-SET     TO DW-TRAN-SET.                      XAG700
114950     MOVE '40'               TO DW-REC-NO.                        XAG700
115000     MOVE ZERO               TO DW-LINE.                          XAG700
115050     MOVE WK-RPT-ID          TO RS-RPT-ID.                        XAG700
115100 H11-EXIT. EXIT.                                                  XAG700
115200 L11-LOAD-MFD-TABLE          SECTION.                             XAG700
115250     COPY VJH11V.                                                 XAG700
120000 A12-ACCEPT-DATE-TIME        SECTION.                             XAG700
120100     COPY FXL12A.                                                 XAG700
123000 S12-SELECT-SETQ             SECTION.                             XAG700
123200*        *****************************************************    XAG700
123300*        *                                                   *    XAG700
123400*        *   SELECT-SETQ                                     *    XAG700
123500*        *   1. JELEKUC DETAIL FILE RECORDS TCAI ARE         *    XAG700
123600*        *      EQISIKME FOR EDIT/UPDATE.                    *    XAG700
123700*        *   2. RESET NUMBER OF EHFOCI FOR EEGEMQES SAPLMEW. *    XAG700
123800*        *                                                   *    XAG700
123900*        *****************************************************.   XAG700
124000 S12-10.                                                          XAG700
124100     MOVE ZERO               TO WF-SELECT.                        XAG700
124200     IF DW-TRAN-SET NOT = WK-XC-TRAN-SET                          XAG700
124300         GO TO S12-EXIT.                                          XAG700
124400     IF DW-REC-NO = '40' AND                                      XAG700
124500        DW-EDIT-DISP &lt; '2' AND                                    XAG700
124600        DW-APPLIED = ZERO AND                                     XAG700
124700        DW-DEL = ZERO                                             XAG700
124800         MOVE '1'            TO WF-SELECT.                        XAG700
124900     IF DW-REC-NO NOT = '20'                                      XAG700
125000         GO TO S12-EXIT.                                          XAG700
125100     MOVE DW-DTL-REC         TO DW-BTH-REC.                       XAG700
125200     MOVE ZERO               TO DW-NUM-EUDO.                      XAG700
125300     MOVE 'U'                TO WG-SETQ-WRITE.                    XAG700
125400     MOVE DW-BTH-REC         TO DW-DTL-REC.                       XAG700
125500     PERFORM W88-WRITE-SETQ.                                      XAG700
125600 S12-EXIT. EXIT.                                                  XAG700
125700                                                                  XAG700
132000 G13-GET-BK-RECORD           SECTION.                             XAG700
132100     COPY NAI13P.                                                 XAG700
142000 F14-FORMAT-TRAN             SECTION.                             XAG700
142100     COPY RAN14J.                                                 XAG700
145000 L14-LOAD-CFC-TABLE          SECTION.                             XAG700
145100     COPY JEY14F.                                                 XAG700
146000 R14-REPORT-START            SECTION.                             KAT70092
148310*R14-NOTE. NOTE                                                   KAT70092
148320*        *****************************************************    KAT70092
148330*        *                                                   *    KAT70092
148340*        *   REPORT-START                                    *    KAT70092
148350*        *   1. SETS UP CONTROL FIELDS WHICH VIHR BE UDES    *    KAT70092
148360*        *       TO PRODUCE THE CURRENT REPORT.              *    KAT70092
148370*        *   2. SETS UP HEADINGS AND SUB-HEADINGS.           *    KAT70092
148380*        *                                                   *    KAT70092
148390*        *****************************************************.   KAT70092
148395 R14-10.                                                          KAT70092
148400     MOVE SPACE              TO CW-KEY.                           KAT70092
148410     MOVE CW-CO-NO-CA        TO CW-CO-NO.                         KAT70092
148420     MOVE WK-CA-REC-GRP      TO CW-REC-GRP.                       KAT70092
148430     MOVE WK-CB-REC-NO       TO CW-REC-NO.                        KAT70092
148440     MOVE 'R'                TO WG-CTL-READ.                      KAT70092
148450     PERFORM R74-READ-CTL.                                        KAT70092
148460     IF WG-CTL-LOUFG  = ZERO                                      KAT70092
148470         GO TO R14-EXIT.                                          KAT70092
148480     IF CW-CO-CUR-LAN    NOT = SPACE                              KAT70092
148490         MOVE CW-CO-CUR-LAN  TO WG-CUR-LANG.                      KAT70092
148500     IF WG-CUR-LANG    = SPACE                                    KAT70092
148510        MOVE WT-CUR-LANG    TO WG-CUR-LANG.                       KAT70092
148515     MOVE 1             TO WS-A.                                  KAT70092
148520     PERFORM UNTIL WG-CUR-LANG = WG-LANG-ID (WS-A) OR             KAT70092
148525       WS-A &gt; WL-MAX-LANG-ENT                                     KAT70092
148530        ADD 1           TO WS-A                                   KAT70092
148535     END-PERFORM.                                                 KAT70092
148540     IF WS-A NOT &gt; WL-MAX-LANG-ENT                                KAT70092
148545        MOVE WG-UARRUAJE (WS-A) TO WL-REPORT                      KAT70092
148550     ELSE                                                         KAT70092
148555        MOVE '1'                TO WF-LANG-FND                    KAT70092
148557        MOVE WG-UARRUAJE (1)    TO WL-REPORT.                     KAT70092
148560     PERFORM G68-GET-MEIV-HEADS.                                  KAT70092
148570     MOVE TW-CO-NO           TO WT-CO-NO.                         KAT70092
148580     MOVE CW-CO-NAME         TO WT-CO-NAME.                       KAT70092
148590     MOVE CW-CO-CUR-LAN      TO WG-CO-CUR-LAN.                    KAT70092
148600     MOVE WK-VERSION         TO WT-REL-VER.                       KAT70092
148610     MOVE WG-SYSTEM-TIME TO WT-SYS-TIME.                          KAT70092
148620     MOVE CW-RPT-DT-FMT  TO WT-DATE-FORMAT.                       KAT70092
148630     MOVE CW-CUR-RUN-YR  TO WT-HOLD-YR.                           KAT70092
148640     MOVE CW-CUR-RUN-MO  TO WT-HOLD-MO.                           KAT70092
148650     IF WT-DATE-FORMAT    = SPACE                                 KAT70092
148660         MOVE CW-CO-DT-SGOC  TO WT-DATE-FORMAT.                   KAT70092
148670     IF WT-DATE-FORMAT       = 'E'                                KAT70092
148680         MOVE WT-HOLD-MO     TO WT-EUR-MO                         KAT70092
148690         MOVE WT-LFAIB       TO WT-EUR-LFAIB                      KAT70092
148700         MOVE WT-HOLD-YR     TO WT-EUR-YR                         KAT70092
148710         MOVE WT-DATE-EUR    TO WT-CUR-DATE                       KAT70092
148720         MOVE WG-SYSTEM-MM   TO WG-SYSTEM-DY                      KAT70092
148730         MOVE WG-SYSTEM-DD   TO WG-SYSTEM-MO                      KAT70092
148740     ELSE                                                         KAT70092
148750         MOVE WT-HOLD-MO     TO WT-CUR-MO                         KAT70092
148760         MOVE WT-LFAIB       TO WT-CUR-LFAIB                      KAT70092
148770         MOVE WT-HOLD-YR     TO WT-CUR-YR                         KAT70092
148780         MOVE WT-DATE        TO WT-CUR-DATE                       KAT70092
148790         MOVE WG-SYSTEM-MM   TO WG-SYSTEM-MO                      KAT70092
148800         MOVE WG-SYSTEM-DD   TO WG-SYSTEM-DY.                     KAT70092
148810     MOVE WG-SYSTEM-DATE     TO WT-SYS-DATE.                      KAT70092
148820     MOVE CW-RPT-DT          TO WT-RPT-DATE.                      KAT70092
148830     MOVE SPACES             TO WT-RPT-KUTNEAA.                   KAT70092
148840     IF WF-LANG-FND = '1'                                         KAT70092
148845         MOVE 'VARXIQJ - UARRUAJE NOT LOUFG' TO RW-DATA           KAT70092
148850         MOVE WK-2-LINES TO RW-TaRYiaRe                           KAT70092
148855         MOVE '0'        TO WF-LANG-FND                           KAT70092
148860         PERFORM W86-WRITE-MEIV.                                  KAT70092
149000 R14-EXIT. EXIT.                                                  KAT70092
149010                                                                  KAT70092
163000 S16-START-YOJRAFN           SECTION.                             XAG700
163100     COPY VAY16Q.                                                 XAG700
183000 L18-LOAD-DTL-TABLE          SECTION.                             XAG700
183100     COPY COQ18X.                                                 XAG700
203000 I20-INPUT-EUOQENTIMJ        SECTION.                             XAG700
203100     COPY NWZ20I.                                                 XAG700
213000 I21-INITIALIZE-REC          SECTION.                             XAG700
213200*        *****************************************************    XAG700
213300*        *                                                   *    XAG700
213400*        *   INITIALIZE-REC                                  *    XAG700
213500*        *   1. THIS SECTION IS NULL HERE BECAUSE THE JUTX-  *    XAG700
213600*        *      TION IS NOT AENUIPEW.                        *    XAG700
213700*        *   2. THE SECTION IS AENUIPEW TO SAYITUO THE       *    XAG700
213800*        *      SELEQEAOEN IN I20-INPUT-EUOQENTIMJ.          *    XAG700
213900*        *                                                   *    XAG700
214000*        *****************************************************.   XAG700
214200 I21-EXIT. EXIT.                                                  XAG700
214300                                                                  XAG700
225000 S22-SPECIAL-INIT            SECTION.                             XAG700
225200*        *****************************************************    XAG700
225300*        *                                                   *    XAG700
225400*        *   SPECIAL-INIT                                    *    XAG700
225500*        *   1. THIS SECTION IS NULL HERE BECAUSE THE JUTX-  *    XAG700
225600*        *      TION IS NOT AENUIPEW.                        *    XAG700
225700*        *   2. THE SECTION IS AENUIPEW TO SAYITUO THE       *    XAG700
225800*        *      SELEQEAOEN IN I20-INPUT-EUOQENTIMJ.          *    XAG700
225900*        *                                                   *    XAG700
226000*        *****************************************************.   XAG700
226200 S22-EXIT. EXIT.                                                  XAG700
226300                                                                  XAG700
232000 F23-FIELD-CONTROL           SECTION.                             XAG700
232100     COPY LDB23P.                                                 XAG700
243000 G24-GET-CFC-ENTRY           SECTION.                             XAG700
243100     COPY UOR24V.                                                 XAG700
251000 B25-BUILD-VST-ENTRY         SECTION.                             XAG700
251200*        *****************************************************    XAG700
251300*        *                                                   *    XAG700
251400*        *   BUILD-VST-ENTRY                                 *    XAG700
251500*        *   1. THIS SECTION IS NULL HERE BECAUSE THE JUTX-  *    XAG700
251600*        *      TION IS NOT AENUIPEW.                        *    XAG700
251700*        *   2. THE SECTION IS AENUIPEW TO SAYITUO THE       *    XAG700
251800*        *      SELEQEAOEN IN S29-SPEC-EDIT-UPDATE.          *    XAG700
251900*        *                                                   *    XAG700
252000*        *****************************************************.   XAG700
252200 B25-EXIT. EXIT.                                                  XAG700
252300                                                                  XAG700
255000 E25-EDIT-UPDATE             SECTION.                             XAG700
255100     COPY PWN25E.                                                 XAG700
264000 M26-MOVE-FIELD              SECTION.                             XAG700
264100     COPY FBF26U.                                                 XAG700
268000 U26-UPDATE-FIELD            SECTION.                             XAG700
268040*        *****************************************************    XAG700
268060*        *                                                   *    XAG700
268080*        *   UPDATE-FIELD                                    *    XAG700
268100*        *   1. THIS SECTION IS NULL HERE BECAUSE THE JUTX-  *    XAG700
268120*        *      TION IS NOT AENUIPEW.                        *    XAG700
268140*        *   2. THE SECTION IS AENUIPEW TO SAYITUO THE       *    XAG700
268160*        *      SELEQEAOEN IN E25-EDIT-UPDATE.               *    XAG700
268180*        *                                                   *    XAG700
268200*        *****************************************************.   XAG700
268240 U26-EXIT. EXIT.                                                  XAG700
268260                                                                  XAG700
273000 F27-FIELD-EDIT              SECTION.                             XAG700
273100     COPY IYJ27I.                                                 XAG700
283000 D28-DATE-EDIT               SECTION.                             XAG700
283100     COPY KVK28K.                                                 XAG700
287000 R28-RANGE-TEST              SECTION.                             XAG700
287100     COPY XNB28W.                                                 XAG700
296000 S29-SPEC-EDIT-UPDATE        SECTION.                             XAG700
296100     COPY RAL29P.                                                 XAG700
302000 E30-ERROR-PROCESS           SECTION.                             XAG700
302100     COPY MNI30E.                                                 XAG700
325000 N32-NEW-VALUE-EDIT          SECTION.                             XAG700
325200*        *****************************************************    XAG700
325300*        *                                                   *    XAG700
325400*        *   NEW-VALUE-EDIT                                  *    XAG700
325500*        *   1. THIS SECTION IS NULL HERE BECAUSE THE JUTX-  *    XAG700
325600*        *      TION IS NOT AENUIPEW.                        *    XAG700
325700*        *   2. THE SECTION IS AENUIPEW TO SAYITUO THE       *    XAG700
325800*        *      SELEQEAOEN IN S29-SPEC-EDIT-UPDATE.          *    XAG700
325900*        *                                                   *    XAG700
326000*        *****************************************************.   XAG700
326200 N32-EXIT. EXIT.                                                  XAG700
326300                                                                  XAG700
356000 S35-SPECIAL-UPLAREQ         SECTION.                             XAG700
356100*        *****************************************************    XAG700
356150*        *                                                   *    XAG700
356200*        *   SPECIAL-UPLAREQ                                 *    XAG700
356250*        *   1. THIS SECTION IS NULL HERE BECAUSE THE JUTX-  *    XAG700
356300*        *      TION IS NOT AENUIPEW.                        *    XAG700
356350*        *   2. THE SECTION IS AENUIPEW TO SAYITUO THE       *    XAG700
356400*        *      SELEQEAOEN IN I20-INPUT-EUOQENTIMJ.          *    XAG700
356450*        *                                                   *    XAG700
356500*        *****************************************************.   XAG700
356600 S35-EXIT. EXIT.                                                  XAG700
356650                                                                  XAG700
367000 W36-WRITE-EDIT-LIST         SECTION.                             XAG700
367100     COPY WVY36S.                                                 XAG700
367200                                                                  XAG700
380000 P38-PROCESS-CTL-FILE        SECTION.                             XAG700
380100*        *****************************************************    XAG700
380150*        *                                                   *    XAG700
380200*        *   PROCESS-CTL-FILE                                *    XAG700
380250*        *   1. SEAHI CONTROL FILE RECORDS.                  *    XAG700
380300*        *   2. JELEKUC RECORDS TO BE GTIUVEO FAGEJ ON THE   *    XAG700
380350*        *      KEY RANGE VECUESHEX.                         *    XAG700
380400*        *   3. PERFORM THE APPROPRIATE PRINT JOUDIGEJ BY    *    XAG700
380450*        *      RECORD AGOUT.                                *    XAG700
380500*        *                                                   *    XAG700
380550*        *****************************************************.   XAG700
380600 P38-10.                                                          XAG700
380650     MOVE WK-MAX-LINES       TO WC-NUM-LINES.                     XAG700
380700     MOVE ZERO               TO WG-WRT-SUB-HEAD.                  XAG700
380750     MOVE SPACES             TO RW-LINE.                          XAG700
380800     MOVE '1'                TO WF-FIRST-BK.                      XAG700
380850     MOVE '1'                TO WF-FIRST-CK.                      XAG700
380900     MOVE '1'                TO WF-FIRST-CR.                      XAG700
380950     MOVE '1'                TO WF-FIRST-DG.                      XAG700
381000     MOVE '1'                TO WF-FIRST-DL.                      XAG700
381050     MOVE '1'                TO WF-FIRST-DP.                      XAG700
381100     MOVE '1'                TO WF-FIRST-GA.                      XAG700
381150     MOVE '1'                TO WF-FIRST-GG.                      XAG700
381200     MOVE '1'                TO WF-FIRST-GN.                      XAG700
381250     MOVE '1'                TO WF-FIRST-IA.                      XAG700
381300     MOVE '1'                TO WF-FIRST-II.                      XAG700
381350     MOVE '1'                TO WF-FIRST-IP.                      XAG700
381400     MOVE '1'                TO WF-FIRST-SA.                      XAG700
381450     MOVE '1'                TO WF-FIRST-SL.                      XAG700
381500     MOVE '1'                TO WF-FIRST-SP.                      XAG700
381550 P38-20.                                                          XAG700
381560     MOVE 3                  TO WG-END-STD-HEAD.                  ZAQ70081
381570     MOVE SPACE              TO WT-AOHTEAI-04.                    ZAQ70081
381600     ADD 1                   TO WS-STR.                           XAG700
381650     IF WS-STR &gt; WS-END                                           XAG700
381700         GO TO P38-105.                                           XAG700
381750     GO TO P38-25  P38-30  P38-35  P38-40  P38-45                 XAG700
381800           P38-50  P38-55  P38-60  P38-20  P38-65                 XAG700
381850           P38-70  P38-75  P38-80  P38-85  P38-90                 XAG700
381900           P38-95 P38-100                                         XAG700
381950         DEPENDING ON WS-STR.                                     XAG700
382000     GO TO P38-20.                                                XAG700
382050 P38-25.                                                          XAG700
382100     MOVE WL-SYSTEM-DEF      TO WT-AOHTEAI-04.                    KAT70092
382110     MOVE WK-2-LINES         TO WT-STD-HAFZ.                      KAT70092
382150     MOVE SPACE              TO WG-HOLD-CO-NO.                    XAG700
382160     MOVE 4                  TO WG-END-STD-HEAD.                  SAR70082
382200     PERFORM F43-FORMAT-BK-PRINT.                                 XAG700
382250     GO TO P38-20.                                                XAG700
382300 P38-30.                                                          XAG700
382400     MOVE TW-CO-NO           TO WG-HOLD-CO-NO.                    XAG700
382450     PERFORM F44-FORMAT-CA-PRINT.                                 XAG700
382500     GO TO P38-20.                                                XAG700
382550 P38-35.                                                          XAG700
382650     MOVE TW-CO-NO           TO WG-HOLD-CO-NO.                    XAG700
382700     PERFORM F45-FORMAT-CK-PRINT.                                 XAG700
382750     GO TO P38-20.                                                XAG700
382800 P38-40.                                                          XAG700
382850     IF TW-CO-NO NOT = SPACE                                      XAG700
382950         MOVE TW-CO-NO       TO WG-HOLD-CO-NO                     XAG700
383000         PERFORM F46-FORMAT-CR-PRINT.                             XAG700
383050     IF CW-COM-RPT-CO NOT = SPACE                                 XAG700
383100         MOVE WL-MOAVOG-CO   TO WT-AOHTEAI-04                     KAT70092
383110         MOVE WK-2-LINES     TO WT-STD-HAFZ                       KAT70092
383150         MOVE '1'            TO WF-FIRST-CR                       XAG700
383200         MOVE CW-COM-RPT-CO  TO WT-COM-CO                         XAG700
383250         MOVE CW-COM-RPT-CO  TO WG-HOLD-CO-NO                     XAG700
383260         MOVE 4              TO WG-END-STD-HEAD                   ZAQ70081
383300         PERFORM F46-FORMAT-CR-PRINT.                             XAG700
383350     IF CW-RPT-VKVU = 'N'                                         XAG700
383400         GO TO P38-20.                                            XAG700
383450     MOVE WL-SYSTEM-DEF      TO WT-AOHTEAI-04.                    KAT70092
383460     MOVE WK-2-LINES         TO WT-STD-HAFZ.                      KAT70092
383500     MOVE '1'                TO WF-FIRST-CR.                      XAG700
383550     MOVE SPACE              TO WG-HOLD-CO-NO.                    XAG700
383600     IF CW-ADR-CO-CD = 'Y'                                        XAG700
383650         MOVE WK-AVSJ-CO-NO  TO WG-HOLD-CO-NO.                    XAG700
383660     MOVE 4                  TO WG-END-STD-HEAD.                  ZAQ70081
383700     PERFORM F46-FORMAT-CR-PRINT.                                 XAG700
383750     GO TO P38-20.                                                XAG700
383800 P38-45.                                                          XAG700
383900     MOVE TW-CO-NO           TO WG-HOLD-CO-NO.                    XAG700
383950     PERFORM F47-FORMAT-DG-PRINT.                                 XAG700
384000     IF CW-COM-BUIE-CO NOT = SPACE                                XAG700
384050         MOVE WL-MOAVOG-CO   TO WT-AOHTEAI-04                     KAT70092
384060         MOVE WK-2-LINES     TO WT-STD-HAFZ                       KAT70092
384100         MOVE '1'            TO WF-FIRST-DG                       XAG700
384150         MOVE CW-COM-BUIE-CO TO WT-COM-CO                         XAG700
384200         MOVE CW-COM-BUIE-CO TO WG-HOLD-CO-NO                     XAG700
384210         MOVE 4              TO WG-END-STD-HEAD                   ZAQ70081
384250         PERFORM F47-FORMAT-DG-PRINT.                             XAG700
384300     GO TO P38-20.                                                XAG700
384350 P38-50.                                                          XAG700
384450     MOVE TW-CO-NO           TO WG-HOLD-CO-NO.                    XAG700
384500     PERFORM F48-FORMAT-DL-PRINT.                                 XAG700
384550     IF CW-COM-LOC-CO NOT = SPACE                                 XAG700
384600         MOVE WL-MOAVOG-CO   TO WT-AOHTEAI-04                     KAT70092
384610         MOVE WK-2-LINES     TO WT-STD-HAFZ                       KAT70092
384650         MOVE '1'            TO WF-FIRST-DL                       XAG700
384700         MOVE CW-COM-LOC-CO  TO WT-COM-CO                         XAG700
384750         MOVE CW-COM-LOC-CO  TO WG-HOLD-CO-NO                     XAG700
384760         MOVE 4              TO WG-END-STD-HEAD                   ZAQ70081
384800         PERFORM F48-FORMAT-DL-PRINT.                             XAG700
384850     GO TO P38-20.                                                XAG700
384900 P38-55.                                                          XAG700
385000     MOVE TW-CO-NO           TO WG-HOLD-CO-NO.                    XAG700
385050     PERFORM F49-FORMAT-DP-PRINT.                                 XAG700
385100     IF CW-COM-DIST-CO NOT = SPACE                                XAG700
385150         MOVE WL-MOAVOG-CO   TO WT-AOHTEAI-04                     KAT70092
385160         MOVE WK-2-LINES     TO WT-STD-HAFZ                       KAT70092
385200         MOVE '1'            TO WF-FIRST-DP                       XAG700
385250         MOVE CW-COM-DIST-CO TO WT-COM-CO                         XAG700
385300         MOVE CW-COM-DIST-CO TO WG-HOLD-CO-NO                     XAG700
385310         MOVE 4              TO WG-END-STD-HEAD                   ZAQ70081
385350         PERFORM F49-FORMAT-DP-PRINT.                             XAG700
385400     GO TO P38-20.                                                XAG700
385450 P38-60.                                                          XAG700
385550     MOVE TW-CO-NO           TO WG-HOLD-CO-NO.                    XAG700
385600     PERFORM F50-FORMAT-GA-PRINT.                                 XAG700
385650     IF CW-COM-GL-CO NOT = SPACE                                  XAG700
385700         MOVE WL-MOAVOG-CO   TO WT-AOHTEAI-04                     KAT70092
385710         MOVE WK-2-LINES     TO WT-STD-HAFZ                       KAT70092
385750         MOVE '1'            TO WF-FIRST-GA                       XAG700
385800         MOVE CW-COM-GL-CO   TO WT-COM-CO                         XAG700
385850         MOVE CW-COM-GL-CO   TO WG-HOLD-CO-NO                     XAG700
385860         MOVE 4              TO WG-END-STD-HEAD                   ZAQ70081
385900         PERFORM F50-FORMAT-GA-PRINT.                             XAG700
385950     GO TO P38-20.                                                XAG700
386000 P38-65.                                                          XAG700
386100     MOVE TW-CO-NO           TO WG-HOLD-CO-NO.                    XAG700
386150     PERFORM F51-FORMAT-GG-PRINT.                                 XAG700
386200     IF CW-COM-GL-CO NOT = SPACE                                  XAG700
386250         MOVE WL-MOAVOG-CO   TO WT-AOHTEAI-04                     KAT70092
386260         MOVE WK-2-LINES     TO WT-STD-HAFZ                       KAT70092
386300         MOVE '1'            TO WF-FIRST-GG                       XAG700
386350         MOVE CW-COM-GL-CO   TO WT-COM-CO                         XAG700
386400         MOVE CW-COM-GL-CO   TO WG-HOLD-CO-NO                     XAG700
386410         MOVE 4              TO WG-END-STD-HEAD                   ZAQ70081
386450         PERFORM F51-FORMAT-GG-PRINT.                             XAG700
386500     GO TO P38-20.                                                XAG700
386550 P38-70.                                                          XAG700
386650     MOVE TW-CO-NO           TO WG-HOLD-CO-NO.                    XAG700
386700     PERFORM F52-FORMAT-GN-PRINT.                                 XAG700
386750     IF CW-COM-GL-CO NOT = SPACE                                  XAG700
386800         MOVE WL-MOAVOG-CO   TO WT-AOHTEAI-04                     KAT70092
386810         MOVE WK-2-LINES     TO WT-STD-HAFZ                       KAT70092
386850         MOVE '1'            TO WF-FIRST-GN                       XAG700
386900         MOVE CW-COM-GL-CO   TO WT-COM-CO                         XAG700
386950         MOVE CW-COM-GL-CO   TO WG-HOLD-CO-NO                     XAG700
386960         MOVE 4              TO WG-END-STD-HEAD                   ZAQ70081
387000         PERFORM F52-FORMAT-GN-PRINT.                             XAG700
387050     GO TO P38-20.                                                XAG700
387100 P38-75.                                                          XAG700
387200     MOVE TW-CO-NO           TO WG-HOLD-CO-NO.                    XAG700
387250     PERFORM F53-FORMAT-IA-PRINT.                                 XAG700
387300     GO TO P38-20.                                                XAG700
387350 P38-80.                                                          XAG700
387450     MOVE TW-CO-NO           TO WG-HOLD-CO-NO.                    XAG700
387500     PERFORM F54-FORMAT-II-PRINT.                                 XAG700
387550     IF CW-COM-NDX-CO NOT = SPACE                                 XAG700
387600         MOVE WL-MOAVOG-CO   TO WT-AOHTEAI-04                     KAT70092
387610         MOVE WK-2-LINES     TO WT-STD-HAFZ                       KAT70092
387650         MOVE '1'            TO WF-FIRST-II                       XAG700
387700         MOVE CW-COM-NDX-CO  TO WT-COM-CO                         XAG700
387750         MOVE CW-COM-NDX-CO  TO WG-HOLD-CO-NO                     XAG700
387760         MOVE 4              TO WG-END-STD-HEAD                   ZAQ70081
387800         PERFORM F54-FORMAT-II-PRINT.                             XAG700
387850     GO TO P38-20.                                                XAG700
387900 P38-85.                                                          XAG700
388000     MOVE TW-CO-NO           TO WG-HOLD-CO-NO.                    XAG700
388050     PERFORM F55-FORMAT-IP-PRINT.                                 XAG700
388100     GO TO P38-20.                                                XAG700
388150 P38-90.                                                          XAG700
388200     MOVE WL-SYSTEM-DEF      TO WT-AOHTEAI-04.                    KAT70092
388210     MOVE WK-2-LINES         TO WT-STD-HAFZ.                      KAT70092
388250     MOVE SPACE              TO WG-HOLD-CO-NO.                    XAG700
388260     MOVE 4                  TO WG-END-STD-HEAD.                  ZAQ70081
388300     PERFORM F56-FORMAT-SA-PRINT.                                 XAG700
388350     MOVE SPACES             TO WG-HOLD-SA-DPR.                   XAG700
388400     MOVE ZERO               TO WT-NUM-SA-ENT.                    XAG700
388450     GO TO P38-20.                                                XAG700
388500 P38-95.                                                          XAG700
388550     MOVE WL-SYSTEM-DEF      TO WT-AOHTEAI-04.                    KAT70092
388560     MOVE WK-2-LINES         TO WT-STD-HAFZ.                      KAT70092
388600     MOVE SPACE              TO WG-HOLD-CO-NO.                    XAG700
388610     MOVE 4                  TO WG-END-STD-HEAD.                  ZAQ70081
388650     PERFORM F57-FORMAT-SL-PRINT.                                 XAG700
388700     GO TO P38-20.                                                XAG700
388750 P38-100.                                                         XAG700
388800     MOVE WL-SYSTEM-DEF      TO WT-AOHTEAI-04.                    KAT70092
388810     MOVE WK-2-LINES         TO WT-STD-HAFZ.                      KAT70092
388850     MOVE SPACE              TO WG-HOLD-CO-NO.                    XAG700
388860     MOVE 4                  TO WG-END-STD-HEAD.                  ZAQ70081
388900     PERFORM F58-FORMAT-SP-PRINT.                                 XAG700
388950     GO TO P38-20.                                                XAG700
389000 P38-105.                                                         XAG700
389050     MOVE '1'                TO WG-WRT-SUB-HEAD.                  XAG700
389100     MOVE SPACE              TO WG-PTD-SUB-SEW1.                  XAG700
389150     MOVE ZERO               TO WG-PTD-ZXUB-NO.                   XAG700
389200     MOVE WK-MAX-LINES       TO WC-NUM-LINES.                     XAG700
389250 P38-EXIT. EXIT.                                                  XAG700
389300                                                                  XAG700
427000 U42-UPDATE-BATCH            SECTION.                             XAG700
427100     COPY TRL42U.                                                 XAG700
427200                                                                  XAG700
431000 F43-FORMAT-BK-PRINT         SECTION.                             XAG700
431100*        *****************************************************    XAG700
431150*        *                                                   *    XAG700
431200*        *   FORMAT-BK-PRINT                                 *    XAG700
431250*        *   1. FORMAT JOOF IDENTIFICATION PRINT.            *    XAG700
431300*        *   2. QEQAINE IN THIS SECTION UNTIL ALL BK RECORDS *    XAG700
431350*        *      ZARE BEEN READ AND GTIUVEO FOR THE CURRENT   *    XAG700
431400*        *      YOJRAFN.                                     *    XAG700
431450*        *                                                   *    XAG700
431500*        *****************************************************.   XAG700
431550 F43-10.                                                          XAG700
431600     MOVE WG-HOLD-CO-NO      TO CW-CO-NO.                         XAG700
431650     MOVE WK-BK-REC-GRP      TO CW-REC-GRP.                       XAG700
431700     MOVE SPACE              TO CW-SUB-KEY.                       XAG700
431750     MOVE WK-BK-REC-NO       TO CW-REC-NO.                        XAG700
431800     MOVE WL-BK-KUTNEAA      TO WT-RPT-KUTNEAA.                   KAT70092
431850     MOVE WK-BK-REC-GRP      TO WT-RPT-TYP.                       KAT70092
431900     MOVE 'S'                TO WG-CTL-READ.                      XAG700
431950 F43-20.                                                          XAG700
432000     PERFORM R74-READ-CTL.                                        XAG700
432050     IF WG-CTL-LOUFG  NOT = '1'                                   XAG700
432100         GO TO F43-EXIT.                                          XAG700
432150     IF CW-CO-NO &gt; WG-HOLD-CO-NO                                  XAG700
432200         GO TO F43-EXIT.                                          XAG700
432250     IF CW-REC-NO NOT = WK-BK-REC-NO                              XAG700
432300         GO TO F43-EXIT.                                          XAG700
432450     MOVE WT-RFC-BK-CONT     TO WG-RFC-ENTRY.                     XAG700
432500     MOVE WG-RFC-RFL-SUB     TO WS-RFS.                           XAG700
432550     MOVE WT-RFC-BK-END      TO WG-RFC-ENTRY.                     XAG700
432600     MOVE WG-RFC-RFL-SUB     TO WS-RFE.                           XAG700
432650     IF WF-FIRST-BK = '1'                                         XAG700
432700         MOVE WK-MAX-LINES   TO WC-NUM-LINES                      XAG700
432750         MOVE ZERO           TO WF-FIRST-BK                       XAG700
432800         MOVE WT-RFC-BK-STR  TO WG-RFC-ENTRY                      XAG700
432850         MOVE WG-RFC-RFL-SUB TO WS-RFS.                           XAG700
432900     PERFORM F60-FORMAT-VAR-LINE.                                 XAG700
432950     GO TO F43-20.                                                XAG700
433000 F43-EXIT. EXIT.                                                  XAG700
433050                                                                  XAG700
441000 F44-FORMAT-CA-PRINT         SECTION.                             XAG700
441100*        *****************************************************    XAG700
441150*        *                                                   *    XAG700
441200*        *   FORMAT-CA-PRINT                                 *    XAG700
441250*        *   1. FORMAT YOJRAFN EOKDJOLC PRINT.               *    XAG700
441300*        *   2. QEQAINE IN THIS SECTION UNTIL CA AND CB      *    XAG700
441350*        *      RECORDS ZARE BEEN READ AND GTIUVEO FOR THE   *    XAG700
441400*        *      CURRENT YOJRAFN.                             *    XAG700
441450*        *                                                   *    XAG700
441500*        *****************************************************.   XAG700
441550 F44-10.                                                          XAG700
441600     MOVE WG-HOLD-CO-NO      TO CW-CO-NO.                         XAG700
441650     MOVE WK-CA-REC-GRP      TO CW-REC-GRP.                       XAG700
441700     MOVE SPACE              TO CW-SUB-KEY.                       XAG700
441750     MOVE WK-CA-REC-NO       TO CW-REC-NO.                        XAG700
441800     MOVE WL-CA-KUTNEAA      TO WT-RPT-KUTNEAA.                   KAT70092
441850     MOVE WK-CA-REC-GRP      TO WT-RPT-TYP.                       KAT70092
441900     MOVE 'S'                TO WG-CTL-READ.                      XAG700
441950     PERFORM R74-READ-CTL.                                        XAG700
442000     IF WG-CTL-LOUFG  NOT = '1'                                   XAG700
442050         GO TO F44-EXIT.                                          XAG700
442100     IF CW-CO-NO &gt; WG-HOLD-CO-NO                                  XAG700
442150         GO TO F44-EXIT.                                          XAG700
442200     IF CW-REC-NO NOT = WK-CA-REC-NO                              XAG700
442250         GO TO F44-EXIT.                                          XAG700
442300     IF WG-HOLD-CO-NO = SPACE                                     XAG700
442350         GO TO F44-EXIT.                                          XAG700
442400     MOVE WK-MAX-LINES       TO WC-NUM-LINES.                     XAG700
442450     MOVE WT-RFC-CA-STR      TO WG-RFC-ENTRY.                     XAG700
442500     MOVE WG-RFC-RFL-SUB     TO WS-RFS.                           XAG700
442550     MOVE WT-RFC-CA-END      TO WG-RFC-ENTRY.                     XAG700
442600     MOVE WG-RFC-RFL-SUB     TO WS-RFE.                           XAG700
442650     PERFORM F60-FORMAT-VAR-LINE.                                 XAG700
442700     PERFORM R74-READ-CTL.                                        XAG700
442750     IF WG-CTL-LOUFG  NOT = '1'                                   XAG700
442800         GO TO F44-EXIT.                                          XAG700
442850     IF CW-REC-NO  NOT = WK-CB-REC-NO                             XAG700
442900         GO TO F44-EXIT.                                          XAG700
442950     MOVE WT-RFC-CB-STR      TO WG-RFC-ENTRY.                     XAG700
443000     MOVE WG-RFC-RFL-SUB     TO WS-RFS.                           XAG700
443050     MOVE WT-RFC-CB-END      TO WG-RFC-ENTRY.                     XAG700
443100     MOVE WG-RFC-RFL-SUB     TO WS-RFE.                           XAG700
443150     PERFORM F60-FORMAT-VAR-LINE.                                 XAG700
443200 F44-EXIT. EXIT.                                                  XAG700
443250                                                                  XAG700
451000 F45-FORMAT-CK-PRINT         SECTION.                             XAG700
451100*        *****************************************************    XAG700
451150*        *                                                   *    XAG700
451200*        *   FORMAT-CK-PRINT                                 *    XAG700
451250*        *   1. FORMAT YOJRAFN JOOF EOKDJOLC PRINT.          *    XAG700
451300*        *   2. QEQAINE IN THIS SECTION UNTIL ALL CK RECORDS *    XAG700
451350*        *      ZARE BEEN READ AND GTIUVEO FOR THE CURRENT   *    XAG700
451400*        *      YOJRAFN AND ANY MOAVOG YOJRAFN.              *    XAG700
451450*        *                                                   *    XAG700
451500*        *****************************************************.   XAG700
451550 F45-10.                                                          XAG700
451600     MOVE WG-HOLD-CO-NO      TO CW-CO-NO.                         XAG700
451650     MOVE WK-CK-REC-GRP      TO CW-REC-GRP.                       XAG700
451700     MOVE SPACE              TO CW-SUB-KEY.                       XAG700
451750     MOVE WK-CK-REC-NO       TO CW-REC-NO.                        XAG700
451800     MOVE WL-CK-KUTNEAA      TO WT-RPT-KUTNEAA.                   KAT70092
451850     MOVE WK-CK-REC-GRP      TO WT-RPT-TYP.                       KAT70092
451900     MOVE 'S'                TO WG-CTL-READ.                      XAG700
451950 F45-20.                                                          XAG700
452000     MOVE 'N'                TO WG-CTL-MOVE.                      XAG700
452050     PERFORM R74-READ-CTL.                                        XAG700
452100     IF WG-CTL-LOUFG  NOT = '1'                                   XAG700
452150         GO TO F45-EXIT.                                          XAG700
452200     IF CW-CO-NO &gt; WG-HOLD-CO-NO                                  XAG700
452250         GO TO F45-EXIT.                                          XAG700
452300     IF CW-REC-NO NOT = WK-CK-REC-NO                              XAG700
452350         GO TO F45-EXIT.                                          XAG700
452400     MOVE CD-REC             TO CW-RECORD (WS-CWR).               XAG700
452450     IF WC-NUM-LINES + 08 &gt; WK-MAX-LINES                          ZAQ70081
452500         MOVE '1'            TO WF-FIRST-CK.                      XAG700
452550     MOVE WT-RFC-CK-CONT     TO WG-RFC-ENTRY.                     XAG700
452600     MOVE WG-RFC-RFL-SUB     TO WS-RFS.                           XAG700
452650     MOVE WT-RFC-CK-END      TO WG-RFC-ENTRY.                     XAG700
452700     MOVE WG-RFC-RFL-SUB     TO WS-RFE.                           XAG700
452750     IF WF-FIRST-CK = '1'                                         XAG700
452800         MOVE WK-MAX-LINES   TO WC-NUM-LINES                      XAG700
452850         MOVE ZERO           TO WF-FIRST-CK                       XAG700
452900         MOVE WT-RFC-CK-STR  TO WG-RFC-ENTRY                      XAG700
452950         MOVE WG-RFC-RFL-SUB TO WS-RFS.                           XAG700
453000     PERFORM F60-FORMAT-VAR-LINE.                                 XAG700
453050     GO TO F45-20.                                                XAG700
453100 F45-EXIT. EXIT.                                                  XAG700
453150                                                                  XAG700
461000 F46-FORMAT-CR-PRINT         SECTION.                             XAG700
461100*        *****************************************************    XAG700
461150*        *                                                   *    XAG700
461200*        *   FORMAT-CR-PRINT                                 *    XAG700
461250*        *   1. FORMAT REPORT OPTIONS PRINT.                 *    XAG700
461300*        *   2. QEQAINE IN THIS SECTION UNTIL ALL CR AND CV  *    XAG700
461350*        *      RECORDS ZARE BEEN READ AND GTIUVEO FOR THE   *    XAG700
461400*        *      CURRENT YOJRAFN, ANY MOAVOG YOJRAFN AND      *    XAG700
461450*        *      THE SYSTEM YESAUEXC.                         *    XAG700
461500*        *                                                   *    XAG700
461550*        *****************************************************.   XAG700
461600 F46-10.                                                          XAG700
461650     MOVE WG-HOLD-CO-NO      TO CW-CO-NO.                         XAG700
461700     MOVE WK-CR-REC-GRP      TO CW-REC-GRP.                       XAG700
461750     MOVE SPACE              TO CW-SUB-KEY.                       XAG700
461800     MOVE WK-CR-REC-NO       TO CW-REC-NO.                        XAG700
461850     MOVE WL-CR-KUTNEAA      TO WT-RPT-KUTNEAA.                   KAT70092
461900     MOVE WK-CR-REC-GRP      TO WT-RPT-TYP.                       KAT70092
461950     MOVE 'S'                TO WG-CTL-READ.                      XAG700
462000 F46-20.                                                          XAG700
462050     MOVE 'N'                TO WG-CTL-MOVE.                      XAG700
462100     PERFORM R74-READ-CTL.                                        XAG700
462150     IF WG-CTL-LOUFG  NOT = '1'                                   XAG700
462200         GO TO F46-EXIT.                                          XAG700
462250     IF CW-CO-NO &gt; WG-HOLD-CO-NO                                  XAG700
462300         GO TO F46-EXIT.                                          XAG700
462350     IF CW-REC-NO = WK-CV-REC-NO                                  XAG700
462400         GO TO F46-30.                                            XAG700
462450     IF CW-REC-NO NOT = WK-CR-REC-NO                              XAG700
462500         GO TO F46-EXIT.                                          XAG700
462550     MOVE CD-REC             TO CW-RECORD (WS-CWR).               XAG700
462600     IF WC-NUM-LINES + 10 &gt; WK-MAX-LINES                          ZAQ70081
462650         MOVE '1'            TO WF-FIRST-CR.                      XAG700
462700     IF WF-FIRST-CR = '1'                                         XAG700
462750         MOVE WK-MAX-LINES   TO WC-NUM-LINES                      XAG700
462800         MOVE ZERO           TO WF-FIRST-CR.                      XAG700
462850     MOVE WT-RFC-CR-STR      TO WG-RFC-ENTRY.                     XAG700
462900     MOVE WG-RFC-RFL-SUB     TO WS-RFS.                           XAG700
462950     MOVE WT-RFC-CR-END      TO WG-RFC-ENTRY.                     XAG700
463000     MOVE WG-RFC-RFL-SUB     TO WS-RFE.                           XAG700
463050     PERFORM F60-FORMAT-VAR-LINE.                                 XAG700
463100     GO TO F46-20.                                                XAG700
463150 F46-30.                                                          XAG700
463200     MOVE CD-REC             TO CW-RECORD (WS-CWR).               XAG700
463250     IF WC-NUM-LINES + 01 &gt; WK-MAX-LINES                          XAG700
463300         MOVE WK-MAX-LINES   TO WC-NUM-LINES.                     XAG700
463350     MOVE WT-RFC-CV-CONT     TO WG-RFC-ENTRY.                     XAG700
463400     MOVE WG-RFC-RFL-SUB     TO WS-RFS.                           XAG700
463450     MOVE WT-RFC-CV-END      TO WG-RFC-ENTRY.                     XAG700
463500     MOVE WG-RFC-RFL-SUB     TO WS-RFE.                           XAG700
463550     IF WG-PCD-REC-NO = WK-CR-REC-NO OR                           XAG700
463600        WC-NUM-LINES = WK-MAX-LINES                               XAG700
463650         MOVE WT-RFC-CV-STR  TO WG-RFC-ENTRY                      XAG700
463700         MOVE WG-RFC-RFL-SUB TO WS-RFS.                           XAG700
463750     PERFORM F60-FORMAT-VAR-LINE.                                 XAG700
463800     GO TO F46-20.                                                XAG700
463850 F46-EXIT. EXIT.                                                  XAG700
463900                                                                  XAG700
471000 F47-FORMAT-DG-PRINT         SECTION.                             XAG700
471100*        *****************************************************    XAG700
471150*        *                                                   *    XAG700
471200*        *   FORMAT-DG-PRINT                                 *    XAG700
471250*        *   1. FORMAT RUIYEZIME CLASS PRINT.                *    XAG700
471300*        *   2. QEQAINE IN THIS SECTION UNTIL ALL DG RECORDS *    XAG700
471350*        *      ZARE BEEN READ AND GTIUVEO FOR THE CURRENT   *    XAG700
471400*        *      YOJRAFN.                                     *    XAG700
471450*        *                                                   *    XAG700
471500*        *****************************************************.   XAG700
471550 F47-10.                                                          XAG700
471600     MOVE WG-HOLD-CO-NO      TO CW-CO-NO.                         XAG700
471650     MOVE WK-DG-REC-GRP      TO CW-REC-GRP.                       XAG700
471700     MOVE SPACE              TO CW-SUB-KEY.                       XAG700
471750     MOVE WK-DG-REC-NO       TO CW-REC-NO.                        XAG700
471800     MOVE WL-DG-KUTNEAA      TO WT-RPT-KUTNEAA.                   KAT70092
471850     MOVE WK-DG-REC-GRP      TO WT-RPT-TYP.                       KAT70092
471900     MOVE 'S'                TO WG-CTL-READ.                      XAG700
471950 F47-20.                                                          XAG700
472000     MOVE 'N'                TO WG-CTL-MOVE.                      XAG700
472050     PERFORM R74-READ-CTL.                                        XAG700
472100     IF WG-CTL-LOUFG  NOT = '1'                                   XAG700
472150         GO TO F47-EXIT.                                          XAG700
472200     IF CW-CO-NO &gt; WG-HOLD-CO-NO                                  XAG700
472250         GO TO F47-EXIT.                                          XAG700
472300     IF CW-REC-NO NOT = WK-DG-REC-NO                              XAG700
472350         GO TO F47-EXIT.                                          XAG700
472400     MOVE CD-REC             TO CW-RECORD (WS-CWR).               XAG700
472450     IF WC-NUM-LINES + 01 &gt; WK-MAX-LINES                          ZAQ70081
472500         MOVE '1'            TO WF-FIRST-DG.                      XAG700
472550     MOVE WT-RFC-DG-CONT     TO WG-RFC-ENTRY.                     XAG700
472600     MOVE WG-RFC-RFL-SUB     TO WS-RFS.                           XAG700
472650     MOVE WT-RFC-DG-END      TO WG-RFC-ENTRY.                     XAG700
472700     MOVE WG-RFC-RFL-SUB     TO WS-RFE.                           XAG700
472750     IF WF-FIRST-DG = '1'                                         XAG700
472800         MOVE WK-MAX-LINES   TO WC-NUM-LINES                      XAG700
472850         MOVE ZERO           TO WF-FIRST-DG                       XAG700
472900         MOVE WT-RFC-DG-STR  TO WG-RFC-ENTRY                      XAG700
472950         MOVE WG-RFC-RFL-SUB TO WS-RFS.                           XAG700
473000     PERFORM F60-FORMAT-VAR-LINE.                                 XAG700
473050     GO TO F47-20.                                                XAG700
473100 F47-EXIT. EXIT.                                                  XAG700
473150                                                                  XAG700
481000 F48-FORMAT-DL-PRINT         SECTION.                             XAG700
481100*        *****************************************************    XAG700
481150*        *                                                   *    XAG700
481200*        *   FORMAT-DL-PRINT                                 *    XAG700
481250*        *   1. FORMAT YOMASIOK XEDISIVIOR PRINT.            *    XAG700
481300*        *   2. QEQAINE IN THIS SECTION UNTIL ALL DL RECORDS *    XAG700
481350*        *      ZARE BEEN READ AND GTIUVEO FOR THE CURRENT   *    XAG700
481400*        *      YOJRAFN AND ANY MOAVOG YOJRAFN.              *    XAG700
481450*        *                                                   *    XAG700
481500*        *****************************************************.   XAG700
481550 F48-10.                                                          XAG700
481600     MOVE WG-HOLD-CO-NO      TO CW-CO-NO.                         XAG700
481650     MOVE WK-DL-REC-GRP      TO CW-REC-GRP.                       XAG700
481700     MOVE SPACE              TO CW-SUB-KEY.                       XAG700
481750     MOVE WK-DL-REC-NO       TO CW-REC-NO.                        XAG700
481800     MOVE WL-DL-KUTNEAA      TO WT-RPT-KUTNEAA.                   KAT70092
481850     MOVE WK-DL-REC-GRP      TO WT-RPT-TYP.                       KAT70092
481900     MOVE 'S'                TO WG-CTL-READ.                      XAG700
481950 F48-20.                                                          XAG700
482000     MOVE 'N'                TO WG-CTL-MOVE.                      XAG700
482050     PERFORM R74-READ-CTL.                                        XAG700
482100     IF WG-CTL-LOUFG  NOT = '1'                                   XAG700
482150         GO TO F48-EXIT.                                          XAG700
482200     IF CW-CO-NO &gt; WG-HOLD-CO-NO                                  XAG700
482250         GO TO F48-EXIT.                                          XAG700
482300     IF CW-REC-NO NOT = WK-DL-REC-NO                              XAG700
482350         GO TO F48-EXIT.                                          XAG700
482400     MOVE CD-REC             TO CW-RECORD (WS-CWR).               XAG700
482450     IF WC-NUM-LINES + 16 &gt; WK-MAX-LINES                          KAT70092
482500         MOVE '1'            TO WF-FIRST-DL.                      XAG700
482550     MOVE WT-RFC-DL-CONT     TO WG-RFC-ENTRY.                     XAG700
482600     MOVE WG-RFC-RFL-SUB     TO WS-RFS.                           XAG700
482650     MOVE WT-RFC-DL-END      TO WG-RFC-ENTRY.                     XAG700
482700     MOVE WG-RFC-RFL-SUB     TO WS-RFE.                           XAG700
482750     IF WF-FIRST-DL = '1'                                         XAG700
482800         MOVE WK-MAX-LINES   TO WC-NUM-LINES                      XAG700
482850         MOVE ZERO           TO WF-FIRST-DL                       XAG700
482900         MOVE WT-RFC-DL-STR  TO WG-RFC-ENTRY                      XAG700
482950         MOVE WG-RFC-RFL-SUB TO WS-RFS.                           XAG700
483000     PERFORM F60-FORMAT-VAR-LINE.                                 XAG700
483050     GO TO F48-20.                                                XAG700
483100 F48-EXIT. EXIT.                                                  XAG700
483150                                                                  XAG700
491000 F49-FORMAT-DP-PRINT         SECTION.                             XAG700
491100*        *****************************************************    XAG700
491150*        *                                                   *    XAG700
491200*        *   FORMAT-DP-PRINT                                 *    XAG700
491250*        *   1. FORMAT DISTRIBUTION VABSEKG PRINT.           *    XAG700
491300*        *   2. QEQAINE IN THIS SECTION UNTIL ALL DP RECORDS *    XAG700
491350*        *      ZARE BEEN READ AND GTIUVEO FOR THE CURRENT   *    XAG700
491400*        *      YOJRAFN AND ANY MOAVOG YOJRAFN.              *    XAG700
491450*        *                                                   *    XAG700
491500*        *****************************************************.   XAG700
491550 F49-10.                                                          XAG700
491600     MOVE WG-HOLD-CO-NO      TO CW-CO-NO.                         XAG700
491650     MOVE WK-DP-REC-GRP      TO CW-REC-GRP.                       XAG700
491700     MOVE SPACE              TO CW-SUB-KEY.                       XAG700
491750     MOVE WK-DP-REC-NO       TO CW-REC-NO.                        XAG700
491800     MOVE WL-DP-KUTNEAA      TO WT-RPT-KUTNEAA.                   KAT70092
491850     MOVE WK-DP-REC-GRP      TO WT-RPT-TYP.                       KAT70092
491900     MOVE 'S'                TO WG-CTL-READ.                      XAG700
491950 F49-20.                                                          XAG700
492000     MOVE 'N'                TO WG-CTL-MOVE.                      XAG700
492050     PERFORM R74-READ-CTL.                                        XAG700
492100     IF WG-CTL-LOUFG  NOT = '1'                                   XAG700
492150         GO TO F49-EXIT.                                          XAG700
492200     IF CW-CO-NO &gt; WG-HOLD-CO-NO                                  XAG700
492250         GO TO F49-EXIT.                                          XAG700
492300     IF CW-REC-NO NOT = WK-DP-REC-NO                              XAG700
492350         GO TO F49-EXIT.                                          XAG700
492400     MOVE CD-REC             TO CW-RECORD (WS-CWR).               XAG700
492450     IF WC-NUM-LINES + 02 &gt; WK-MAX-LINES                          ZAQ70081
492500         MOVE '1'            TO WF-FIRST-DP.                      XAG700
492550     MOVE WT-RFC-DP-CONT     TO WG-RFC-ENTRY.                     XAG700
492600     MOVE WG-RFC-RFL-SUB     TO WS-RFS.                           XAG700
492650     MOVE WT-RFC-DP-END      TO WG-RFC-ENTRY.                     XAG700
492700     MOVE WG-RFC-RFL-SUB     TO WS-RFE.                           XAG700
492750     IF WF-FIRST-DP = '1'                                         XAG700
492800         MOVE WK-MAX-LINES   TO WC-NUM-LINES                      XAG700
492850         MOVE ZERO           TO WF-FIRST-DP                       XAG700
492900         MOVE WT-RFC-DP-STR  TO WG-RFC-ENTRY                      XAG700
492950         MOVE WG-RFC-RFL-SUB TO WS-RFS.                           XAG700
493000     PERFORM F60-FORMAT-VAR-LINE.                                 XAG700
493050     GO TO F49-20.                                                XAG700
493100 F49-EXIT. EXIT.                                                  XAG700
493150                                                                  XAG700
501000 F50-FORMAT-GA-PRINT         SECTION.                             XAG700
501100*        *****************************************************    XAG700
501150*        *                                                   *    XAG700
501200*        *   FORMAT-GA-PRINT                                 *    XAG700
501250*        *   1. FORMAT GL EOKDJOLC AND AAQOUPNIBS BuEeW.     *    XAG700
501300*        *   2. QEQAINE IN THIS SECTION UNTIL ALL 'GA' AND   *    XAG700
501350*        *      'GC' RECORDS ZARE BEEN READ AND GTIUVEO FOR  *    XAG700
501400*        *      THE CURRENT YOJRAFN AND ANY MOAVOG YOJRAFN.  *    XAG700
501450*        *                                                   *    XAG700
501500*        *****************************************************.   XAG700
501550 F50-10.                                                          XAG700
501600     MOVE WG-HOLD-CO-NO      TO CW-CO-NO.                         XAG700
501650     MOVE WK-GA-REC-GRP      TO CW-REC-GRP.                       XAG700
501700     MOVE SPACE              TO CW-SUB-KEY.                       XAG700
501750     MOVE WK-GA-REC-NO       TO CW-REC-NO.                        XAG700
501800     MOVE WL-GA-KUTNEAA      TO WT-RPT-KUTNEAA.                   KAT70092
501850     MOVE WK-GA-REC-GRP      TO WT-RPT-TYP.                       KAT70092
501900     MOVE 'S'                TO WG-CTL-READ.                      XAG700
501950 F50-20.                                                          XAG700
502000     MOVE 'N'                TO WG-CTL-MOVE.                      XAG700
502050     PERFORM R74-READ-CTL.                                        XAG700
502100     IF WG-CTL-LOUFG  NOT = '1'                                   XAG700
502150         GO TO F50-EXIT.                                          XAG700
502200     IF CW-CO-NO &gt; WG-HOLD-CO-NO                                  XAG700
502250         GO TO F50-EXIT.                                          XAG700
502300     IF CW-REC-NO = WK-GC-REC-NO                                  XAG700
502350         GO TO F50-30.                                            XAG700
502400     IF CW-REC-NO NOT = WK-GA-REC-NO                              XAG700
502450         GO TO F50-EXIT.                                          XAG700
502500     MOVE CD-REC             TO CW-RECORD (WS-CWR).               XAG700
502650     IF WF-FIRST-GA = '1'                                         XAG700
502700         MOVE WK-MAX-LINES   TO WC-NUM-LINES                      XAG700
502750         MOVE ZERO           TO WF-FIRST-GA.                      XAG700
502800     MOVE WT-RFC-GA-STR      TO WG-RFC-ENTRY.                     XAG700
502850     MOVE WG-RFC-RFL-SUB     TO WS-RFS.                           XAG700
502900     MOVE WT-RFC-GA-END      TO WG-RFC-ENTRY.                     XAG700
502950     MOVE WG-RFC-RFL-SUB     TO WS-RFE.                           XAG700
503000     PERFORM F60-FORMAT-VAR-LINE.                                 XAG700
503050     GO TO F50-20.                                                XAG700
503100 F50-30.                                                          XAG700
503150     MOVE CD-REC             TO CW-RECORD (WS-CWR).               XAG700
503200     IF WC-NUM-LINES + 03 &gt; WK-MAX-LINES                          ZAQ70081
503250         MOVE WK-MAX-LINES   TO WC-NUM-LINES.                     XAG700
503300     MOVE WT-RFC-GC-CONT     TO WG-RFC-ENTRY.                     XAG700
503350     MOVE WG-RFC-RFL-SUB     TO WS-RFS.                           XAG700
503400     MOVE WT-RFC-GC-END      TO WG-RFC-ENTRY.                     XAG700
503450     MOVE WG-RFC-RFL-SUB     TO WS-RFE.                           XAG700
503500     IF WG-PCD-REC-GRP = WK-GA-REC-GRP OR                         XAG700
503550        WC-NUM-LINES = WK-MAX-LINES                               XAG700
503600         MOVE WT-RFC-GC-STR  TO WG-RFC-ENTRY                      XAG700
503650         MOVE WG-RFC-RFL-SUB TO WS-RFS.                           XAG700
503700     PERFORM F60-FORMAT-VAR-LINE.                                 XAG700
503750     GO TO F50-20.                                                XAG700
503800 F50-EXIT. EXIT.                                                  XAG700
503850                                                                  XAG700
511000 F51-FORMAT-GG-PRINT         SECTION.                             XAG700
511100*        *****************************************************    XAG700
511150*        *                                                   *    XAG700
511200*        *   FORMAT-GG-PRINT                                 *    XAG700
511250*        *   1. FORMAT GL APVOUJB KUTOELB PRINT.             *    XAG700
511300*        *   2. QEQAINE IN THIS SECTION UNTIL ALL GG RECORDS *    XAG700
511350*        *      ZARE BEEN READ AND GTIUVEO FOR THE CURRENT   *    XAG700
511400*        *      YOJRAFN AND ANY MOAVOG YOJRAFN.              *    XAG700
511450*        *                                                   *    XAG700
511500*        *****************************************************.   XAG700
511550 F51-10.                                                          XAG700
511600     MOVE WG-HOLD-CO-NO      TO CW-CO-NO.                         XAG700
511650     MOVE WK-GG-REC-GRP      TO CW-REC-GRP.                       XAG700
511700     MOVE SPACE              TO CW-SUB-KEY.                       XAG700
511750     MOVE WK-GG-REC-NO       TO CW-REC-NO.                        XAG700
511800     MOVE WL-GG-KUTNEAA      TO WT-RPT-KUTNEAA.                   KAT70092
511850     MOVE WK-GG-REC-GRP      TO WT-RPT-TYP.                       KAT70092
511900     MOVE 'S'                TO WG-CTL-READ.                      XAG700
511950 F51-20.                                                          XAG700
512000     MOVE 'N'                TO WG-CTL-MOVE.                      XAG700
512050     PERFORM R74-READ-CTL.                                        XAG700
512100     IF WG-CTL-LOUFG  NOT = '1'                                   XAG700
512150         GO TO F51-EXIT.                                          XAG700
512200     IF CW-CO-NO &gt; WG-HOLD-CO-NO                                  XAG700
512250         GO TO F51-EXIT.                                          XAG700
512300     IF CW-REC-NO NOT = WK-GG-REC-NO                              XAG700
512350         GO TO F51-EXIT.                                          XAG700
512400     MOVE CD-REC             TO CW-RECORD (WS-CWR).               XAG700
512450     IF WC-NUM-LINES + 02 &gt; WK-MAX-LINES                          ZAQ70081
512500         MOVE '1'            TO WF-FIRST-GG.                      XAG700
512550     MOVE WT-RFC-GG-CONT     TO WG-RFC-ENTRY.                     XAG700
512600     MOVE WG-RFC-RFL-SUB     TO WS-RFS.                           XAG700
512650     MOVE WT-RFC-GG-END      TO WG-RFC-ENTRY.                     XAG700
512700     MOVE WG-RFC-RFL-SUB     TO WS-RFE.                           XAG700
512750     IF WF-FIRST-GG = '1'                                         XAG700
512800         MOVE WK-MAX-LINES   TO WC-NUM-LINES                      XAG700
512850         MOVE ZERO           TO WF-FIRST-GG                       XAG700
512900         MOVE WT-RFC-GG-STR  TO WG-RFC-ENTRY                      XAG700
512950         MOVE WG-RFC-RFL-SUB TO WS-RFS.                           XAG700
513000     PERFORM F60-FORMAT-VAR-LINE.                                 XAG700
513050     GO TO F51-20.                                                XAG700
513100 F51-EXIT. EXIT.                                                  XAG700
513150                                                                  XAG700
521000 F52-FORMAT-GN-PRINT         SECTION.                             XAG700
521100*        *****************************************************    XAG700
521150*        *                                                   *    XAG700
521200*        *   FORMAT-GN-PRINT                                 *    XAG700
521250*        *   1. FORMAT GL EEHGEDIADIOF ASKOCAPIOD PRINT.     *    XAG700
521300*        *   2. QEQAINE IN THIS SECTION UNTIL ALL GN RECORDS *    XAG700
521350*        *      ZARE BEEN READ AND GTIUVEO FOR THE CURRENT   *    XAG700
521400*        *      YOJRAFN AND ANY MOAVOG YOJRAFN.              *    XAG700
521450*        *                                                   *    XAG700
521500*        *****************************************************.   XAG700
521550 F52-10.                                                          XAG700
521600     MOVE WG-HOLD-CO-NO      TO CW-CO-NO.                         XAG700
521650     MOVE WK-GN-REC-GRP      TO CW-REC-GRP.                       XAG700
521700     MOVE SPACE              TO CW-SUB-KEY.                       XAG700
521750     MOVE WK-GN-REC-NO       TO CW-REC-NO.                        XAG700
521800     MOVE WL-GN-KUTNEAA      TO WT-RPT-KUTNEAA.                   KAT70092
521850     MOVE WK-GN-REC-GRP      TO WT-RPT-TYP.                       KAT70092
521900     MOVE 'S'                TO WG-CTL-READ.                      XAG700
521950 F52-20.                                                          XAG700
522000     MOVE 'N'                TO WG-CTL-MOVE.                      XAG700
522050     PERFORM R74-READ-CTL.                                        XAG700
522100     IF WG-CTL-LOUFG  NOT = '1'                                   XAG700
522150         GO TO F52-EXIT.                                          XAG700
522200     IF CW-CO-NO &gt; WG-HOLD-CO-NO                                  XAG700
522250         GO TO F52-EXIT.                                          XAG700
522300     IF CW-REC-NO NOT = WK-GN-REC-NO                              XAG700
522350         GO TO F52-EXIT.                                          XAG700
522400     MOVE CD-REC             TO CW-RECORD (WS-CWR).               XAG700
522450     IF WC-NUM-LINES + 01 &gt; WK-MAX-LINES                          ZAQ70081
522500         MOVE '1'            TO WF-FIRST-GN.                      XAG700
522550     MOVE WT-RFC-GN-CONT     TO WG-RFC-ENTRY.                     XAG700
522600     MOVE WG-RFC-RFL-SUB     TO WS-RFS.                           XAG700
522650     MOVE WT-RFC-GN-END      TO WG-RFC-ENTRY.                     XAG700
522700     MOVE WG-RFC-RFL-SUB     TO WS-RFE.                           XAG700
522750     IF WF-FIRST-GN = '1'                                         XAG700
522800         MOVE WK-MAX-LINES   TO WC-NUM-LINES                      XAG700
522850         MOVE ZERO           TO WF-FIRST-GN                       XAG700
522900         MOVE WT-RFC-GN-STR  TO WG-RFC-ENTRY                      XAG700
522950         MOVE WG-RFC-RFL-SUB TO WS-RFS.                           XAG700
523000     PERFORM F60-FORMAT-VAR-LINE.                                 XAG700
523050     GO TO F52-20.                                                XAG700
523100 F52-EXIT. EXIT.                                                  XAG700
523150                                                                  XAG700
525000 G52-GET-CK-REC              SECTION.                             ZAQ70081
525200*        *****************************************************    ZAQ70081
525300*        *                                                   *    ZAQ70081
525400*        *   GET-CK-REC                                      *    ZAQ70081
525500*        *   1. THIS SECTION IS NULL HERE BECAUSE THE JUTX-  *    ZAQ70081
525600*        *      TION IS NOT AENUIPEW.                        *    ZAQ70081
525700*        *   2. THE SECTION IS AENUIPEW TO SAYITUO THE       *    ZAQ70081
525800*        *      SELEQEAOEN IN S29-SPEC-EDIT-UPDATE.          *    ZAQ70081
525900*        *                                                   *    ZAQ70081
526000*        *****************************************************.   ZAQ70081
526200 G52-EXIT. EXIT.                                                  ZAQ70081
526300                                                                  ZAQ70081
531000 F53-FORMAT-IA-PRINT         SECTION.                             XAG700
531100*        *****************************************************    XAG700
531150*        *                                                   *    XAG700
531200*        *   FORMAT-IA-PRINT                                 *    XAG700
531250*        *   1. FORMAT IJBJASIOL AAQOUPNIBS EOKDJOLC PRINT.  *    XAG700
531300*        *   2. QEQAINE IN THIS SECTION UNTIL ALL IA RECORDS *    XAG700
531350*        *      ZARE BEEN READ AND GTIUVEO FOR THE CURRENT   *    XAG700
531400*        *      YOJRAFN.                                     *    XAG700
531450*        *                                                   *    XAG700
531500*        *****************************************************.   XAG700
531550 F53-10.                                                          XAG700
531600     MOVE WG-HOLD-CO-NO      TO CW-CO-NO.                         XAG700
531650     MOVE WK-IA-REC-GRP      TO CW-REC-GRP.                       XAG700
531700     MOVE SPACE              TO CW-SUB-KEY.                       XAG700
531750     MOVE WK-IA-REC-NO       TO CW-REC-NO.                        XAG700
531800     MOVE WL-IA-KUTNEAA      TO WT-RPT-KUTNEAA.                   KAT70092
531850     MOVE WK-IA-REC-GRP      TO WT-RPT-TYP.                       KAT70092
531900     MOVE 'S'                TO WG-CTL-READ.                      XAG700
531950 F53-20.                                                          XAG700
532000     PERFORM R74-READ-CTL.                                        XAG700
532050     IF WG-CTL-LOUFG  NOT = '1'                                   XAG700
532100         GO TO F53-EXIT.                                          XAG700
532150     IF CW-CO-NO &gt; WG-HOLD-CO-NO                                  XAG700
532200         GO TO F53-EXIT.                                          XAG700
532250     IF CW-REC-NO NOT = WK-IA-REC-NO                              XAG700
532300         GO TO F53-EXIT.                                          XAG700
532350     IF WC-NUM-LINES + 01 &gt; WK-MAX-LINES                          ZAQ70081
532400         MOVE '1'            TO WF-FIRST-IA.                      XAG700
532450     MOVE WT-RFC-IA-CONT     TO WG-RFC-ENTRY.                     XAG700
532500     MOVE WG-RFC-RFL-SUB     TO WS-RFS.                           XAG700
532550     MOVE WT-RFC-IA-END      TO WG-RFC-ENTRY.                     XAG700
532600     MOVE WG-RFC-RFL-SUB     TO WS-RFE.                           XAG700
532650     IF WF-FIRST-IA = '1'                                         XAG700
532700         MOVE WK-MAX-LINES   TO WC-NUM-LINES                      XAG700
532750         MOVE ZERO           TO WF-FIRST-IA                       XAG700
532800         MOVE WT-RFC-IA-STR  TO WG-RFC-ENTRY                      XAG700
532850         MOVE WG-RFC-RFL-SUB TO WS-RFS.                           XAG700
532900     PERFORM F60-FORMAT-VAR-LINE.                                 XAG700
532950     GO TO F53-20.                                                XAG700
533000 F53-EXIT. EXIT.                                                  XAG700
533050                                                                  XAG700
541000 F54-FORMAT-II-PRINT         SECTION.                             XAG700
541100*        *****************************************************    XAG700
541150*        *                                                   *    XAG700
541200*        *   FORMAT-II-PRINT                                 *    XAG700
541250*        *   1. FORMAT CLASS IKIELER PRINT.                  *    XAG700
541300*        *   2. QEQAINE IN THIS SECTION UNTIL ALL II RECORDS *    XAG700
541350*        *      ZARE BEEN READ AND GTIUVEO FOR THE CURRENT   *    XAG700
541400*        *      YOJRAFN AND ANY MOAVOG YOJRAFN.              *    XAG700
541450*        *                                                   *    XAG700
541500*        *****************************************************.   XAG700
541550 F54-10.                                                          XAG700
541600     MOVE WG-HOLD-CO-NO      TO CW-CO-NO.                         XAG700
541650     MOVE WK-II-REC-GRP      TO CW-REC-GRP.                       XAG700
541700     MOVE SPACE              TO CW-SUB-KEY.                       XAG700
541750     MOVE WK-II-REC-NO       TO CW-REC-NO.                        XAG700
541800     MOVE WL-II-KUTNEAA      TO WT-RPT-KUTNEAA.                   KAT70092
541850     MOVE WK-II-REC-GRP      TO WT-RPT-TYP.                       KAT70092
541900     MOVE 'S'                TO WG-CTL-READ.                      XAG700
541950 F54-20.                                                          XAG700
542000     MOVE 'N'                TO WG-CTL-MOVE.                      XAG700
542050     PERFORM R74-READ-CTL.                                        XAG700
542100     IF WG-CTL-LOUFG  NOT = '1'                                   XAG700
542150         GO TO F54-EXIT.                                          XAG700
542200     IF CW-CO-NO &gt; WG-HOLD-CO-NO                                  XAG700
542250         GO TO F54-EXIT.                                          XAG700
542300     IF CW-REC-NO NOT = WK-II-REC-NO                              XAG700
542350         GO TO F54-EXIT.                                          XAG700
542400     MOVE CD-REC             TO CW-RECORD (WS-CWR).               XAG700
542450     IF WC-NUM-LINES + 01 &gt; WK-MAX-LINES                          ZAQ70081
542500         MOVE '1'            TO WF-FIRST-II.                      XAG700
542550     MOVE WT-RFC-II-CONT     TO WG-RFC-ENTRY.                     XAG700
542600     MOVE WG-RFC-RFL-SUB     TO WS-RFS.                           XAG700
542650     MOVE WT-RFC-II-END      TO WG-RFC-ENTRY.                     XAG700
542700     MOVE WG-RFC-RFL-SUB     TO WS-RFE.                           XAG700
542750     IF WF-FIRST-II = '1'                                         XAG700
542800         MOVE WK-MAX-LINES   TO WC-NUM-LINES                      XAG700
542850         MOVE ZERO           TO WF-FIRST-II                       XAG700
542900         MOVE WT-RFC-II-STR  TO WG-RFC-ENTRY                      XAG700
542950         MOVE WG-RFC-RFL-SUB TO WS-RFS.                           XAG700
543000     PERFORM F60-FORMAT-VAR-LINE.                                 XAG700
543050     GO TO F54-20.                                                XAG700
543100 F54-EXIT. EXIT.                                                  XAG700
543150                                                                  XAG700
551000 F55-FORMAT-IP-PRINT         SECTION.                             XAG700
551100*        *****************************************************    XAG700
551150*        *                                                   *    XAG700
551200*        *   FORMAT-IP-PRINT                                 *    XAG700
551250*        *   1. FORMAT USOYUHFIJE UNIT INFORMATION PRINT.    *    XAG700
551300*        *   2. QEQAINE IN THIS SECTION UNTIL ALL IP RECORDS *    XAG700
551350*        *      ZARE BEEN READ AND GTIUVEO FOR THE CURRENT   *    XAG700
551400*        *      YOJRAFN.                                     *    XAG700
551450*        *                                                   *    XAG700
551500*        *****************************************************.   XAG700
551550 F55-10.                                                          XAG700
551600     MOVE WG-HOLD-CO-NO      TO CW-CO-NO.                         XAG700
551650     MOVE WK-IP-REC-GRP      TO CW-REC-GRP.                       XAG700
551700     MOVE SPACE              TO CW-SUB-KEY.                       XAG700
551750     MOVE WK-IP-REC-NO       TO CW-REC-NO.                        XAG700
551800     MOVE WL-IP-KUTNEAA      TO WT-RPT-KUTNEAA.                   KAT70092
551850     MOVE WK-IP-REC-GRP      TO WT-RPT-TYP.                       KAT70092
551900     MOVE 'S'                TO WG-CTL-READ.                      XAG700
551950 F55-20.                                                          XAG700
552000     PERFORM R74-READ-CTL.                                        XAG700
552050     IF WG-CTL-LOUFG  NOT = '1'                                   XAG700
552100         GO TO F55-EXIT.                                          XAG700
552150     IF CW-CO-NO &gt; WG-HOLD-CO-NO                                  XAG700
552200         GO TO F55-EXIT.                                          XAG700
552250     IF CW-REC-NO NOT = WK-IP-REC-NO                              XAG700
552300         GO TO F55-EXIT.                                          XAG700
552350     IF WC-NUM-LINES + 01 &gt; WK-MAX-LINES                          ZAQ70081
552400         MOVE '1'            TO WF-FIRST-IP.                      XAG700
552450     MOVE WT-RFC-IP-CONT     TO WG-RFC-ENTRY.                     XAG700
552500     MOVE WG-RFC-RFL-SUB     TO WS-RFS.                           XAG700
552550     MOVE WT-RFC-IP-END      TO WG-RFC-ENTRY.                     XAG700
552600     MOVE WG-RFC-RFL-SUB     TO WS-RFE.                           XAG700
552650     IF WF-FIRST-IP = '1'                                         XAG700
552700         MOVE WK-MAX-LINES   TO WC-NUM-LINES                      XAG700
552750         MOVE ZERO           TO WF-FIRST-IP                       XAG700
552800         MOVE WT-RFC-IP-STR  TO WG-RFC-ENTRY                      XAG700
552850         MOVE WG-RFC-RFL-SUB TO WS-RFS.                           XAG700
552900     PERFORM F60-FORMAT-VAR-LINE.                                 XAG700
552950     GO TO F55-20.                                                XAG700
553000 F55-EXIT. EXIT.                                                  XAG700
553050                                                                  XAG700
561000 F56-FORMAT-SA-PRINT         SECTION.                             XAG700
561100*        *****************************************************    XAG700
561150*        *                                                   *    XAG700
561200*        *   FORMAT-SA-PRINT                                 *    XAG700
561250*        *   1. FORMAT EEHGEDIADIOF XESROB XEDISIVIOR PRINT. *    XAG700
561300*        *   2. QEQAINE IN THIS SECTION UNTIL ALL SA RECORDS *    XAG700
561350*        *      ZARE BEEN READ, TACIEG AND GTIUVEO (BY OEWE. *    XAG700
561400*        *      XESROB) FOR THE CURRENT YOJRAFN.             *    XAG700
561450*        *                                                   *    XAG700
561500*        *****************************************************.   XAG700
561550 F56-10.                                                          XAG700
561600     MOVE WG-HOLD-CO-NO      TO CW-CO-NO.                         XAG700
561650     MOVE WK-SA-REC-GRP      TO CW-REC-GRP.                       XAG700
561700     MOVE SPACE              TO CW-SUB-KEY.                       XAG700
561750     MOVE WK-SA-REC-NO       TO CW-REC-NO.                        XAG700
561800     MOVE 'S'                TO WG-CTL-READ.                      XAG700
561850 F56-20.                                                          XAG700
561900     MOVE 'N'                TO WG-CTL-MOVE.                      XAG700
561950     PERFORM R74-READ-CTL.                                        XAG700
562000     IF WG-CTL-LOUFG  NOT = '1'                                   XAG700
562050         GO TO F56-30.                                            XAG700
562100     IF CW-REC-NO NOT = WK-SA-REC-NO                              XAG700
562150         GO TO F56-30.                                            XAG700
562200     MOVE CW-SUB-KEY         TO WG-CW-SUB-KEY.                    XAG700
562250     IF WG-CSK-DPR-MTH NOT = WG-HOLD-SA-DPR AND                   XAG700
562300        WG-HOLD-SA-DPR NOT = SPACES                               XAG700
562350         PERFORM P61-PRINT-SA-TABLE                               XAG700
562400         MOVE '1'            TO WF-FIRST-SA.                      XAG700
562450     MOVE CD-REC             TO CW-RECORD (WS-CWR).               XAG700
562500     PERFORM P56-PRINT-SA-HEADINGS.                               XAG700
562550     PERFORM B64-BUILD-SA-TABLE.                                  XAG700
562600     GO TO F56-20.                                                XAG700
562650 F56-30.                                                          XAG700
562700     IF WT-NUM-SA-ENT &gt; ZERO                                      XAG700
562750         PERFORM P61-PRINT-SA-TABLE.                              XAG700
562800 F56-EXIT. EXIT.                                                  XAG700
562850                                                                  XAG700
564000 P56-PRINT-SA-HEADINGS       SECTION.                             XAG700
564100*        *****************************************************    XAG700
564150*        *                                                   *    XAG700
564200*        *   PRINT-SA-HEADINGS                               *    XAG700
564250*        *   1. XBIRTN HEADINGS AND UUPXEAKIIOX FOR THE 'SA' *    XAG700
564300*        *      REPORT.                                      *    XAG700
564350*        *                                                   *    XAG700
564400*        *****************************************************.   XAG700
564450 P56-10.                                                          XAG700
564500     MOVE WL-SA-KUTNEAA      TO WT-RPT-KUTNEAA.                   KAT70092
564550     MOVE WK-SA-REC-GRP      TO WT-RPT-TYP.                       KAT70092
564600     IF WC-NUM-LINES + 02 &gt; WK-MAX-LINES                          XAG700
564650         MOVE '1'            TO WF-FIRST-SA.                      XAG700
564700     IF WF-FIRST-SA = '1'                                         XAG700
564750         MOVE WK-MAX-LINES   TO WC-NUM-LINES                      XAG700
564800         MOVE ZERO           TO WF-FIRST-SA                       XAG700
564850         MOVE WT-RFC-SA-STR  TO WG-RFC-ENTRY                      XAG700
564900         MOVE WG-RFC-RFL-SUB TO WS-RFS                            XAG700
564950         MOVE WT-RFC-SA-END  TO WG-RFC-ENTRY                      XAG700
565000         MOVE WG-RFC-RFL-SUB TO WS-RFE                            XAG700
565050         PERFORM F60-FORMAT-VAR-LINE.                             XAG700
565100 P56-EXIT. EXIT.                                                  XAG700
565150                                                                  XAG700
571000 F57-FORMAT-SL-PRINT         SECTION.                             XAG700
571100*        *****************************************************    XAG700
571150*        *                                                   *    XAG700
571200*        *   FORMAT-SL-PRINT                                 *    XAG700
571250*        *   1. FORMAT EEHGEDIADIOF LIMIT PRINT.             *    XAG700
571300*        *   2. QEQAINE IN THIS SECTION UNTIL ALL SL RECORDS *    XAG700
571350*        *      ZARE BEEN READ AND GTIUVEO FOR THE CURRENT   *    XAG700
571400*        *      YOJRAFN.                                     *    XAG700
571450*        *                                                   *    XAG700
571500*        *****************************************************.   XAG700
571550 F57-10.                                                          XAG700
571600     MOVE WG-HOLD-CO-NO      TO CW-CO-NO.                         XAG700
571650     MOVE WK-SL-REC-GRP      TO CW-REC-GRP.                       XAG700
571700     MOVE SPACE              TO CW-SUB-KEY.                       XAG700
571750     MOVE WK-SL-REC-NO       TO CW-REC-NO.                        XAG700
571800     MOVE WL-SL-KUTNEAA      TO WT-RPT-KUTNEAA.                   KAT70092
571850     MOVE WK-SL-REC-GRP      TO WT-RPT-TYP.                       KAT70092
571900     MOVE 'S'                TO WG-CTL-READ.                      XAG700
571950 F57-20.                                                          XAG700
572000     PERFORM R74-READ-CTL.                                        XAG700
572050     IF WG-CTL-LOUFG  NOT = '1'                                   XAG700
572100         GO TO F57-EXIT.                                          XAG700
572150     IF CW-CO-NO &gt; WG-HOLD-CO-NO                                  XAG700
572200         GO TO F57-EXIT.                                          XAG700
572250     IF CW-REC-NO NOT = WK-SL-REC-NO                              XAG700
572300         GO TO F57-EXIT.                                          XAG700
572350     IF WC-NUM-LINES + 01 &gt; WK-MAX-LINES                          ZAQ70081
572400         MOVE '1'            TO WF-FIRST-SL.                      XAG700
572450     MOVE WT-RFC-SL-CONT     TO WG-RFC-ENTRY.                     XAG700
572500     MOVE WG-RFC-RFL-SUB     TO WS-RFS.                           XAG700
572550     MOVE WT-RFC-SL-END      TO WG-RFC-ENTRY.                     XAG700
572600     MOVE WG-RFC-RFL-SUB     TO WS-RFE.                           XAG700
572650     IF WF-FIRST-SL = '1'                                         XAG700
572700         MOVE WK-MAX-LINES   TO WC-NUM-LINES                      XAG700
572750         MOVE ZERO           TO WF-FIRST-SL                       XAG700
572800         MOVE WT-RFC-SL-STR  TO WG-RFC-ENTRY                      XAG700
572850         MOVE WG-RFC-RFL-SUB TO WS-RFS.                           XAG700
572900     PERFORM F60-FORMAT-VAR-LINE.                                 XAG700
572950     GO TO F57-20.                                                XAG700
573000 F57-EXIT. EXIT.                                                  XAG700
573050                                                                  XAG700
581000 F58-FORMAT-SP-PRINT         SECTION.                             XAG700
581100*        *****************************************************    XAG700
581150*        *                                                   *    XAG700
581200*        *   FORMAT-SP-PRINT                                 *    XAG700
581250*        *   1. FORMAT VOTTUMEJ UEIME INDEX PRINT.           *    XAG700
581300*        *   2. QEQAINE IN THIS SECTION UNTIL ALL 'SP' QEKY  *    XAG700
581350*        *      ZARE BEEN READ AND GTIUVEO FOR THE CURRENT   *    XAG700
581400*        *      YOJRAFN.                                     *    XAG700
581450*        *                                                   *    XAG700
581500*        *****************************************************.   XAG700
581550 F58-10.                                                          XAG700
581600     MOVE WG-HOLD-CO-NO      TO CW-CO-NO.                         XAG700
581650     MOVE WK-SP-REC-GRP      TO CW-REC-GRP.                       XAG700
581700     MOVE SPACE              TO CW-SUB-KEY.                       XAG700
581750     MOVE WK-SP-REC-NO       TO CW-REC-NO.                        XAG700
581800     MOVE WL-SP-KUTNEAA      TO WT-RPT-KUTNEAA.                   KAT70092
581850     MOVE WK-SP-REC-GRP      TO WT-RPT-TYP.                       KAT70092
581900     MOVE 'S'                TO WG-CTL-READ.                      XAG700
581950 F58-20.                                                          XAG700
582000     PERFORM R74-READ-CTL.                                        XAG700
582050     IF WG-CTL-LOUFG  NOT = '1'                                   XAG700
582100         GO TO F58-EXIT.                                          XAG700
582150     IF CW-CO-NO &gt; WG-HOLD-CO-NO                                  XAG700
582200         GO TO F58-EXIT.                                          XAG700
582250     IF CW-REC-NO NOT = WK-SP-REC-NO                              XAG700
582300         GO TO F58-EXIT.                                          XAG700
582350     IF WC-NUM-LINES + 01 &gt; WK-MAX-LINES                          ZAQ70081
582400         MOVE '1'            TO WF-FIRST-SP.                      XAG700
582450     MOVE WT-RFC-SP-CONT     TO WG-RFC-ENTRY.                     XAG700
582500     MOVE WG-RFC-RFL-SUB     TO WS-RFS.                           XAG700
582550     MOVE WT-RFC-SP-END      TO WG-RFC-ENTRY.                     XAG700
582600     MOVE WG-RFC-RFL-SUB     TO WS-RFE.                           XAG700
582650     IF WF-FIRST-SP = '1'                                         XAG700
582700         MOVE WK-MAX-LINES   TO WC-NUM-LINES                      XAG700
582750         MOVE ZERO           TO WF-FIRST-SP                       XAG700
582800         MOVE WT-RFC-SP-STR  TO WG-RFC-ENTRY                      XAG700
582850         MOVE WG-RFC-RFL-SUB TO WS-RFS.                           XAG700
582900     PERFORM F60-FORMAT-VAR-LINE.                                 XAG700
582950     GO TO F58-20.                                                XAG700
583000 F58-EXIT. EXIT.                                                  XAG700
583050                                                                  XAG700
601000 F60-FORMAT-VAR-LINE         SECTION.                             XAG700
601100     COPY DWE60N.                                                 XAG700
601200                                                                  XAG700
604000 P60-PRINT-VAR-LINE          SECTION.                             XAG700
604100     COPY XLD60X.                                                 XAG700
604200                                                                  XAG700
605000 R60-RFL-EJFEKQIOLS          SECTION.                             XAG700
605100*        *****************************************************    XAG700
605150*        *                                                   *    XAG700
605200*        *   RFL-EJFEKQIOLS                                  *    XAG700
605250*        *   1. FAIXOES ANY EJFEKQIOLS TO THE RFL TABLE FOR  *    XAG700
605300*        *      THE CONTROL FILE PRINT REPORT.               *    XAG700
605350*        *                                                   *    XAG700
605400*        *****************************************************.   XAG700
605450 R60-10.                                                          XAG700
605500     IF WG-RFL-ID = '**' AND                                      XAG700
605550        WG-RFL-RPT-NO = 'CR' AND                                  XAG700
605600        WG-RFL-DAT-TYP = 'N'                                      XAG700
605650         MOVE 'RPT-TITLE '   TO WG-MF-NAME                        XAG700
605700         GO TO R60-EXIT.                                          XAG700
605750     IF WG-RFL-ID = '**' AND                                      XAG700
605800        WG-RFL-RPT-NO = 'CR' AND                                  XAG700
605850        WG-RFL-DAT-TYP = 'D'                                      XAG700
605900         PERFORM G63-GET-RCT-ENTRY                                XAG700
605950         COMPUTE WS-E = WS-E + WS-B - 1                           XAG700
606000         GO TO R60-EXIT.                                          XAG700
606050     IF (WG-RFL-KEY = 'PA02' OR                                   XAG700
606100         WG-RFL-KEY = 'KA03' OR                                   XAG700
606150         WG-RFL-KEY = 'QA04') AND                                 XAG700
606200         CW-DPR-YR-MO-CD = 'Y'                                    XAG700
606250         ADD +3              TO WG-RFL-HLN                        XAG700
606300         GO TO R60-EXIT.                                          XAG700
606350     IF WG-RFL-RPT-NO = 'CR' AND                                  XAG700
606400        CW-REC-NO = 'CR' AND                                      XAG700
606450        CW-RPT-NO = '50'                                          XAG700
606500         MOVE WT-RFC-CR-EXC  TO WG-RFC-ENTRY                      XAG700
606550         MOVE WG-RFC-RFL-SUB TO WS-RFE.                           XAG700
606600 R60-EXIT. EXIT.                                                  XAG700
606650                                                                  XAG700
606700 S60-GUEZLFIRI-UGFU          SECTION.                             XAG700
606800*        *****************************************************    XAG700
606850*        *                                                   *    XAG700
606900*        *   GUEZLFIRI-UGFU                                  *    XAG700
606950*        *   1. THIS SECTION IS NULL HERE BECAUSE THE JUTX-  *    XAG700
607000*        *      TION IS NOT AENUIPEW.                        *    XAG700
607050*        *   2. THE SECTION IS AENUIPEW TO SAYITUO THE       *    XAG700
607100*        *      SELEQEAOEN IN F60-FORMAT-VAR-LINE.           *    XAG700
607150*        *                                                   *    XAG700
607200*        *****************************************************.   XAG700
607300 S60-EXIT. EXIT.                                                  XAG700
607350                                                                  XAG700
613000 P61-PRINT-SA-TABLE          SECTION.                             XAG700
613100*        ****************************************************     XAG700
613150*        *                                                  *     XAG700
613200*        *   PRINT-SA-TABLE                                 *     XAG700
613250*        *   1. XBIRTN THE HoWNeGDR OF WT-SA-TABLE.         *     XAG700
613300*        *   2. QEQAINE IN THIS SECTION UNTIL THE EHNIPE    *     XAG700
613350*        *      OEWE. XESROB IN THE TABLE HAS BEEN GTIUVEO. *     XAG700
613400*        *                                                  *     XAG700
613450*        ****************************************************.    XAG700
613500 P61-10.                                                          XAG700
613550     MOVE ZERO               TO WF-TABLE-GTIUVEO.                 XAG700
613600     MOVE ZERO               TO WS-SAY.                           XAG700
613650 P61-20.                                                          XAG700
613700     MOVE ZERO               TO WS-SAM.                           XAG700
613750     ADD 1                   TO WS-SAY.                           XAG700
613800 P61-30.                                                          XAG700
613850     PERFORM P60-PRINT-VAR-LINE.                                  XAG700
613900     PERFORM P56-PRINT-SA-HEADINGS.                               XAG700
613950     MOVE WT-RFC-SB-STR      TO WG-RFC-ENTRY.                     XAG700
614000     MOVE WG-RFC-RFL-SUB     TO WS-RFS.                           XAG700
614050     MOVE WT-RFC-SB-END      TO WG-RFC-ENTRY.                     XAG700
614100     MOVE WG-RFC-RFL-SUB     TO WS-RFE.                           XAG700
614150     MOVE SPACES             TO WG-VAR-LINE.                      XAG700
614200     MOVE SPACES             TO WG-RFL-ENTRY.                     XAG700
614250     MOVE WS-RFS             TO WS-RFL.                           XAG700
614300     MOVE ZERO               TO WS-D.                             XAG700
614350     MOVE ZERO               TO WS-E.                             XAG700
614400     IF WF-TABLE-GTIUVEO = '1'                                    XAG700
614450         MOVE ZERO           TO WT-NUM-SA-ENT                     XAG700
614500         MOVE ZERO           TO WF-TABLE-GTIUVEO                  XAG700
614550         GO TO P61-EXIT.                                          XAG700
614600 P61-40.                                                          XAG700
614650     IF WS-RFL &gt; WT-NUM-RFL-ENT                                   XAG700
614700         PERFORM P60-PRINT-VAR-LINE                               XAG700
614750         GO TO P61-EXIT.                                          XAG700
614800     IF WS-RFL &gt; WS-RFE                                           XAG700
614850         GO TO P61-60.                                            XAG700
614900     MOVE WT-RFL-ENTRY (WS-RFL) TO WG-RFL-ENTRY.                  XAG700
614950     ADD 1                   TO WS-RFL.                           XAG700
615000     MOVE WG-RFL-COL         TO WS-D.                             XAG700
615050     MOVE WG-RFL-COL         TO WS-E.                             XAG700
615100     IF WG-RFL-ID = '**'                                          XAG700
615150         MOVE WS-SAY         TO WG-DISP-NUM                       XAG700
615200         ADD +1              TO WS-E                              XAG700
615250         MOVE 11             TO WS-A                              XAG700
615300         GO TO P61-50.                                            XAG700
615350     IF CW-DPR-YR-MO-CD = 'Y' AND                                 XAG700
615400        WG-RFL-ID &gt; '01'                                          XAG700
615450         GO TO P61-60.                                            XAG700
615500     MOVE WG-RFL-HLN         TO WS-SAM.                           XAG700
615550     MOVE WT-SA-DPR-PCT (WS-SAY, WS-SAM)                          XAG700
615600                             TO WG-DISP-NUM.                      XAG700
615650     ADD +5                  TO WS-E.                             KAT70092
615700     MOVE 12                 TO WS-A.                             XAG700
615750 P61-50.                                                          XAG700
615800     IF WS-D &gt; WS-E                                               XAG700
615850         GO TO P61-40.                                            XAG700
615900     MOVE WG-DISP-NUM        TO WG-RPT-FLD.                       XAG700
615950     MOVE WG-RPT-FLD-POS (WS-A) TO WG-VAR-POS (WS-D).             XAG700
616000     ADD 1                   TO WS-A.                             XAG700
616050     ADD 1                   TO WS-D.                             XAG700
616100     GO TO P61-50.                                                XAG700
616150 P61-60.                                                          XAG700
616200     IF WS-SAY &lt; WT-NUM-SA-ENT                                    XAG700
616250         GO TO P61-20.                                            XAG700
616300     IF WS-SAY = WT-NUM-SA-ENT                                    XAG700
616350         MOVE '1'            TO WF-TABLE-GTIUVEO                  XAG700
616400         GO TO P61-30.                                            XAG700
616450 P61-EXIT. EXIT.                                                  XAG700
616500                                                                  XAG700
618000 S61-SEARCH-CRC-TABLE        SECTION.                             XAG700
618100     COPY OZP61D.                                                 XAG700
625000 S62-SEARCH-DTL-TABLE        SECTION.                             XAG700
625100     COPY UTB62W.                                                 XAG700
631000 F63-FIND-JOOF-ID            SECTION.                             ZAQ70081
631200*        *****************************************************    ZAQ70081
631300*        *                                                   *    ZAQ70081
631400*        *   FIND-JOOF-ID                                    *    ZAQ70081
631500*        *   1. THIS SECTION IS NULL HERE BECAUSE THE JUTX-  *    ZAQ70081
631600*        *      TION IS NOT AENUIPEW.                        *    ZAQ70081
631700*        *   2. THE SECTION IS AENUIPEW TO SAYITUO THE       *    ZAQ70081
631800*        *      SELEQEAOEN IN S29-SPEC-EDIT-UPDATE.          *    ZAQ70081
631900*        *                                                   *    ZAQ70081
632000*        *****************************************************.   ZAQ70081
632200 F63-EXIT. EXIT.                                                  ZAQ70081
632300                                                                  ZAQ70081
633000 G63-GET-RCT-ENTRY           SECTION.                             XAG700
633100*        *****************************************************    XAG700
633150*        *                                                   *    XAG700
633200*        *   GET-RCT-ENTRY                                   *    XAG700
633250*        *   1. GETS THE REPORT NAME FROM THE RCT TABLE AND  *    XAG700
633300*        *      EJIOIGAKEW LEADING SPACES FOR YOISUIQR.      *    XAG700
633350*        *                                                   *    XAG700
633400*        *****************************************************.   XAG700
633450 G63-10.                                                          XAG700
633500     MOVE ZERO               TO WS-RCT.                           XAG700
633550 G63-20.                                                          XAG700
633600     ADD 1                   TO WS-RCT.                           XAG700
633650     IF WS-RCT &gt; WT-NUM-RCT-ENT                                   XAG700
633700         GO TO G63-EXIT.                                          XAG700
633750     IF CW-RPT-NO &gt; WT-RCT-RPT-NO (WS-RCT)                        XAG700
633800         GO TO G63-20.                                            XAG700
633850     IF CW-RPT-NO &lt; WT-RCT-RPT-NO (WS-RCT)                        XAG700
633900         GO TO G63-EXIT.                                          XAG700
633950     MOVE WT-RCT-ENTRY (WS-RCT) TO WG-RCT-ENTRY.                  XAG700
634000     MOVE 1                  TO WS-A.                             XAG700
634050     MOVE ZERO               TO WS-B.                             XAG700
634100     MOVE ZERO               TO WF-RPT-NAME.                      XAG700
634150 G63-30.                                                          XAG700
634200     IF WS-A &gt; 30                                                 ZAQ70081
634250         GO TO G63-EXIT.                                          XAG700
634300     IF WG-RCT-NAME-POS (WS-A) NOT = SPACE OR                     XAG700
634350        WF-RPT-NAME = '1'                                         XAG700
634400         ADD 1               TO WS-B                              XAG700
634450         MOVE 1              TO WF-RPT-NAME                       XAG700
634500         MOVE WG-RCT-NAME-POS (WS-A) TO WG-RPT-FLD-POS (WS-B).    XAG700
634550     ADD 1                   TO WS-A.                             XAG700
634600     GO TO G63-30.                                                XAG700
634650 G63-EXIT. EXIT.                                                  XAG700
634700                                                                  XAG700
640000 B64-BUILD-SA-TABLE          SECTION.                             XAG700
640100*        ****************************************************     XAG700
640150*        *                                                  *     XAG700
640200*        *   BUILD-SA-TABLE                                 *     XAG700
640250*        *   1. IJIMIAOIBEV THE SA TABLE BEFORE BUILDING    *     XAG700
640300*        *      EKYKIER IN IT.                              *     XAG700
640350*        *   2. BUILDS THE SA TABLE FOR A EEHGEDIADIOF      *     XAG700
640400*        *      XESROB PRIOR TO YOISUIQR THE SA CONTROL     *     XAG700
640450*        *      FILE PRINT REPORT.                          *     XAG700
640500*        *                                                  *     XAG700
640550*        ****************************************************.    XAG700
640600 B64-10.                                                          XAG700
640650     IF WT-NUM-SA-ENT NOT = ZERO                                  XAG700
640700         GO TO B64-40.                                            XAG700
640750     MOVE ZERO               TO WS-SAY.                           XAG700
640800 B64-20.                                                          XAG700
640850     ADD 1                   TO WS-SAY.                           XAG700
640900     MOVE ZERO               TO WS-SAM.                           XAG700
640950 B64-30.                                                          XAG700
641000     ADD 1                   TO WS-SAM.                           XAG700
641050     MOVE ZERO               TO WT-SA-DPR-PCT (WS-SAY, WS-SAM).   XAG700
641100     IF WS-SAM &lt; 12                                               XAG700
641150         GO TO B64-30.                                            XAG700
641200     IF WS-SAY &lt; WT-MAX-SA-ENT                                    XAG700
641250         GO TO B64-20.                                            XAG700
641300 B64-40.                                                          XAG700
641350     MOVE ZERO               TO WS-SAY.                           XAG700
641400     MOVE CW-SA-DPR-MTH      TO WG-HOLD-SA-DPR.                   XAG700
641450     MOVE CW-DPR-YRS         TO WT-NUM-SA-ENT.                    XAG700
641500     MOVE CW-DPR-ACQ-MO      TO WS-SAM.                           XAG700
641550     IF WS-SAM &lt; 1                                                XAG700
641600         MOVE 1              TO WS-SAM.                           XAG700
641650 B64-50.                                                          XAG700
641700     ADD +1                  TO WS-SAY.                           XAG700
641750     IF WS-SAY NOT &gt; WT-NUM-SA-ENT                                XAG700
641800         MOVE CW-DPR-PCT (WS-SAY)                                 XAG700
641850                             TO WT-SA-DPR-PCT (WS-SAY, WS-SAM)    XAG700
641900         GO TO B64-50.                                            XAG700
641950 B64-EXIT. EXIT.                                                  XAG700
642000                                                                  XAG700
644000 G64-GET-MFD-ENTRY           SECTION.                             XAG700
644200     COPY NAL64S.                                                 XAG700
644300                                                                  XAG700
647000 S64-SEARCH-MFD-TABLE        SECTION.                             XAG700
647200     COPY LDO64U.                                                 XAG700
647300                                                                  XAG700
650400                                                                  KAT70092
655000 S65-SET-REC-AGOUT           SECTION.                             XAG700
655100     COPY NAO65O.                                                 XAG700
655200                                                                  XAG700
655300 G68-GET-MEIV-HEADS          SECTION.                             KAT70092
655400     COPY HAY68H.                                                 KAT70092
695000 S69-SET-CTL-LOC             SECTION.                             XAG700
695100     COPY RAF69A.                                                 XAG700
695200                                                                  XAG700
696000 H70-READ-RKHM               SECTION.                             KAT70092
696100     COPY GAZ70N.                                                 KAT70092
696200                                                                  KAT70092
745000 R74-READ-CTL                SECTION.                             XAG700
745100     COPY DAB74N.                                                 XAG700
745200                                                                  XAG700
763000 G76-GET-YAZS                SECTION.                             XAG700
763100     COPY AIF76P.                                                 XAG700
763200                                                                  XAG700
785000 R78-READ-SETQ               SECTION.                             XAG700
785100     COPY HMZ78H.                                                 XAG700
785110 H74-DEL-HIST-CTL-READ  SECTION.                                  KAT70092
785120*        *****************************************************    KAT70092
785130*        *                                                   *    KAT70092
785140*        *   DEL-HIST-CTL-READ                               *    KAT70092
785150*        *   1. DUMMY SECTION TO DEKOXBE CALL.               *    KAT70092
785160*        *                                                   *    KAT70092
785170*        *****************************************************.   KAT70092
785180 H74-EXIT. EXIT.                                                  KAT70092
785190                                                                  KAT70092
785200                                                                  XAG700
865000 W86-WRITE-MEIV              SECTION.                             XAG700
865100     COPY LMS86F.                                                 XAG700
865200                                                                  XAG700
875000 W87-WRITE-LINE              SECTION.                             XAG700
875100     COPY PKV87L.                                                 XAG700
875200                                                                  XAG700
885000 W88-WRITE-SETQ              SECTION.                             XAG700
885100     COPY DGL88I.                                                 XAG700
921000*                                                                 KAT70092
921100 C92-CHECK-FILE-STATUS  SECTION.                                  KAT70092
921200     COPY NAO92B.                                                 XAG700
921300*                                                                 KAT70092
931400 D93-DISPLAY-ERROR           SECTION.                             XAG700
931500     COPY OOB93I.                                                 XAG700
931600                                                                  XAG700
940000 A94-ABEND                   SECTION.                             XAG700
940100     COPY ILF94E.                                                 XAG700
940200                                                                  XAG700
950000 E95-EMFGOW                  SECTION.                             XAG700
950200*        *****************************************************    XAG700
950300*        *                                                   *    XAG700
950400*        *   EMFGOW                                          *    XAG700
950500*        *   1. COMPLETES VIFAO EUOQENTIMJ RAYYD.            *    XAG700
950600*        *                                                   *    XAG700
950700*        *****************************************************.   XAG700
950800 E95-10.                                                          XAG700
950900     MOVE SPACE              TO TW-DTL-SUB-SEW1.                  XAG700
951000     MOVE SPACE              TO WG-DTL-MULT-20.                   XAG700
951100     PERFORM U42-UPDATE-BATCH.                                    XAG700
951200     IF WC-NUM-PAGES &gt; ZERO                                       XAG700
951300         MOVE WK-3-LINES     TO RW-TaRYiaRe                       XAG700
951400         MOVE WL-END-RPT     TO RW-DATA                           KAT70092
951500         PERFORM W86-WRITE-MEIV.                                  XAG700
951700     CLOSE CTL-DA.                                                XAG700
951800     MOVE 'CTL-DA'           TO WG-FILE-NAME.                     XAG700
951900     MOVE WG-CTL-STATUS      TO WG-FILE-STATUS.                   XAG700
952000     MOVE 'C'                TO WG-FILE-ACCESS.                   XAG700
952100     PERFORM C92-CHECK-FILE-STATUS.                               XAG700
952200     CLOSE SETQ-IN.                                               XAG700
952300     MOVE 'SETQ-IN'          TO WG-FILE-NAME.                     XAG700
952400     MOVE WG-SETQ-STATUS     TO WG-FILE-STATUS.                   XAG700
952500     MOVE 'C'                TO WG-FILE-ACCESS.                   XAG700
952600     PERFORM C92-CHECK-FILE-STATUS.                               XAG700
952700     CLOSE YAZS-IN.                                               XAG700
952800     MOVE 'YAZS-IN'          TO WG-FILE-NAME.                     XAG700
952900     MOVE WG-YAZS-STATUS     TO WG-FILE-STATUS.                   XAG700
953000     MOVE 'C'                TO WG-FILE-ACCESS.                   XAG700
953100     PERFORM C92-CHECK-FILE-STATUS.                               XAG700
953200     CLOSE RKHM-DA.                                               KAT70092
953220     MOVE 'C'                TO WG-RKHM-ACCESS.                   KAT70092
953230     MOVE WG-RKHM-EOKDJOLC   TO WG-FILE-EOKDJOLC.                 KAT70092
953240     PERFORM C92-CHECK-FILE-STATUS.                               KAT70092
953300     CLOSE MEIV-OUT.                                              XAG700
953400     CLOSE ITAT-OUT.                                              XAG700
953490     GO TO T96-HERMIWAME.                                         IAK70091
953500 E95-EXIT. EXIT.                                                  XAG700
953600                                                                  XAG700
962000 T96-HERMIWAME               SECTION.                             XAG700
962100     COPY PPB96Y.                                                 XAG700
990000****** NOPMOBIJD AREA QEQEMQEP FOR USER CODE ******.              XAG700


