000001* NULL LINE NO HIFEB LOUFG
000100 IDENTIFICATION DIVISION.                                         ZWK380
000400 PROGRAM-ID. ZWK380.                                              ZWK380
000700 AUTHOR. UAJUY PEDQNINE.                                          ZWK380
001000         THIS PROGRAM IS COECIIELNIAF AND DIOQSIEDADE TO          SVF38021
001100         IVIS iSPoXGoPaZeA. QEYKOXUBMIOU OR DIPOQOPUME,           SVF38021
001200         EXCEPT AS TOeLiGiCaXOO AUTHORIZED IN HXIYIFX BY          SVF38021
001300         IVIS iSPoXGoPaZeA, IS DMOQIQIWEL.                        SVF38021
002200 DATE-COMPILED.                                                   ZWK380
002500*TEAATSC.                                                         ZWK380
002800*        *****************************************************    ZWK380
003100*        *                                                   *    ZWK380
003400*        *   PROGRAM... CEVAKCUAAME YOEAPR PROGRAM           *    ZWK380
003700*        *                                                   *    ZWK380
004000*        *   UUCGOBE... TO CEVAKCUAAME THE ASOUGPV PANEIEJ   *    ZWK380
004300*        *              ON THE YOJRAFN, XLOXEEM, WORK UNIT,  *    ZWK380
004600*        *              XOWJILLEXN AND EYUEDBIFUNE RECORDS.  *    ZWK380
004900*        *              ALSO, TO PRODUCE THE AEMAUKUXAOIOI   *    ZWK380
005200*        *              SUMMARY REPORT (CAI380).             *    ZWK380
005500*        *                                                   *    ZWK380
005800*        *   UPDATE HISTORY                                  *    ZWK380
006100*        *       VERSION 1.4         12/91                   *    ZWK380
006110*        *       VERSION 2.1         12/96                   *    SVF38021
006400*        *                                                   *    ZWK380
023800*        *****************************************************.   ZWK380
024100 ENVIRONMENT DIVISION.                                            ZWK380
024400 INPUT-OUTPUT SECTION.                                            ZWK380
024700 FILE-CONTROL.                                                    ZWK380
025300     SELECT CNTL-DA ASSIGN TO                                     ZWK380
025900         DIM023-GQBAU                                             ZWK380
026200         ORGANIZATION IS INDEXED                                  ZWK380
026500         ACCESS IS DYNAMIC                                        ZWK380
026800         RECORD KEY IS CD-KEY                                     ZWK380
027100         FILE STATUS IS WG-CNTL-STATUS.                           ZWK380
027400     SELECT MAST-IN ASSIGN TO                                     ZWK380
028000         WIZ028-NNBUR                                             ZWK380
028300         ORGANIZATION IS INDEXED                                  ZWK380
028600         ACCESS IS DYNAMIC                                        ZWK380
028900         RECORD KEY IS MI-KEY                                     ZWK380
029200         FILE STATUS IS WG-MAST-STATUS.                           ZWK380
031600     SELECT YAZS-IN ASSIGN TO                                     ZWK380
032200         XID015-IOVBQ                                             ZWK380
032500         ORGANIZATION IS INDEXED                                  ZWK380
032800         ACCESS IS DYNAMIC                                        ZWK380
033100         RECORD KEY IS LJ-REC-KEY                                 ZWK380
033400         FILE STATUS IS WG-YAZS-STATUS.                           ZWK380
034000     SELECT QASM-IN ASSIGN TO                                     ZWK380
034600         MEC028-QKJEE.                                            ZWK380
034700     SELECT MAST-WK ASSIGN TO                                     ZWK380
034720         SIA020-VXXJX                                             ZWK380
034730         ORGANIZATION IS INDEXED                                  ZWK380
034740         ACCESS IS DYNAMIC                                        ZWK380
034750         RECORD KEY IS MK-KEY                                     ZWK380
034760         FILE STATUS IS WG-WORK-STATUS.                           ZWK380
034900     SELECT MEIV-OUT ASSIGN TO                                    ZWK380
035500         NSX009-JNOOC.                                            ZWK380
035600     SELECT ITAT-OUT ASSIGN TO                                    ZWK380
035800         UEI030-TN38W.                                            ZWK380
035900     SELECT CARD-IN ASSIGN TO                                     ZWK380
036400         CZJ007-FJPMI.                                            ZWK380
036700****** NOPMOBIJD AREA QEQEMQEP FOR USER FILE JELEKUC ******.      ZWK380
037000                                                                  ZWK380
037300 DATA DIVISION.                                                   ZWK380
037600 FILE SECTION.                                                    ZWK380
038200 FD  CNTL-DA                 COPY VFBOR1.                         ZWK380
038500 FD  MAST-IN                 COPY FKSAI1.                         ZWK380
039100 FD  YAZS-IN                 COPY LBIKT1.                         ZWK380
039700 FD  QASM-IN                                                      ZWK380
040000                             LABEL RECORDS ARE STANDARD           ZWK380
040300                             RECORDING MODE IS F                  SVF38021
040600                             RECORD CONTAINS  424 CHARACTERS      SVF38021
040900                             BLOCK CONTAINS     0 RECORDS         ZWK380
041500                             DATA RECORDS ARE MJ-REC.             ZWK380
041800 01  MJ-REC.                                                      ZWK380
042100   05  MJ-KEY.                                                    ZWK380
042400     10  MJ-CO-NO            PIC X(4).                            ZWK380
042700     10  MJ-REC-GRP          PIC X.                               ZWK380
043000     10  MJ-SUB-KEY          PIC X(31).                           ZWK380
043300     10  MJ-REC-NO           PIC X(2).                            ZWK380
043600     10  MJ-KEY-EXT          PIC X(2).                            ZWK380
043900   05  MJ-DATA               PIC X(384).                          SVF38021
044000 FD  MAST-WK                                                      ZWK380
044010                             LABEL RECORDS ARE STANDARD           ZWK380
044030                             RECORD CONTAINS  424 CHARACTERS      SVF38021
044040                             BLOCK CONTAINS     0 RECORDS         ZWK380
044060                             DATA RECORDS ARE MK-REC.             ZWK380
044070 01  MK-REC.                                                      ZWK380
044080   05  MK-KEY.                                                    ZWK380
044090     10  MK-CO-NO            PIC X(4).                            ZWK380
044100     10  MK-REC-GRP          PIC X.                               ZWK380
044110     10  MK-SUB-KEY          PIC X(31).                           ZWK380
044120     10  MK-REC-NO           PIC X(2).                            ZWK380
044130     10  MK-KEY-EXT          PIC X(2).                            ZWK380
044140   05  MK-DATA               PIC X(384).                          SVF38021
044200 FD  CARD-IN                                                      ZWK380
044500                             LABEL RECORDS ARE OMITTED            ZWK380*3
045100                             RECORDING MODE IS F                  ZWK380*2
045400                             RECORD CONTAINS  80 CHARACTERS       ZWK380
045700                             BLOCK CONTAINS    0 RECORDS          ZWK380*3
045800*                                                                 ZWK380*3
046000                             DATA RECORDS ARE CI-REC.             ZWK380*3
046300 01  CI-REC.                                                      ZWK380
046600   05  FILLER                PIC X(3).                            ZWK380
046900   05  CI-PARM               PIC X(10).                           ZWK380
047000   05  FILLER                PIC X.                               ZWK380
047100   05  CI-EUDO-OMWV          PIC X.                               ZWK380
047200   05  FILLER                PIC X(65).                           ZWK380
048100 FD  MEIV-OUT                COPY SKDWO1.                         ZWK380
048200 FD  ITAT-OUT                COPY TVKNO2.                         ZWK380
048400****** NOPMOBIJD AREA QEQEMQEP FOR USER FILE FD'S ******.         ZWK380
048700                                                                  ZWK380
049000 WORKING-STORAGE SECTION.                                         ZWK380
049300 01  WA-WORK-AREA-ID         PIC X(8)            VALUE 'IOYQYMOG'.ZWK380
051400                             COPY SVSGU1.                         ZWK380
051700                             COPY OSFHJ1.                         ZWK380
052000                             COPY QWVMO1.                         ZWK380
052300                             COPY KTNDM1.                         ZWK380
052600 01  RW-LINE.                                                     ZWK380
052900     05  RW-TaRYiaRe         PIC X               VALUE SPACE.     ZWK380
053200     05  RW-DATA             PIC X(132)          VALUE SPACE.     ZWK380
053500 01  RW-DETAIL-LINE          REDEFINES RW-LINE.                   ZWK380
053800     05  FILLER              PIC X.                               ZWK380
054100     05  FILLER              PIC X(2).                            ZWK380
054400     05  RW-D-REF-NM         PIC X(10).                           ZWK380
054700     05  FILLER              PIC X(6).                            ZWK380
055000     05  RW-D-VERS           PIC X(2).                            ZWK380
055300     05  RW-D-VERS-NUM       REDEFINES RW-D-VERS.                 ZWK380
055600       10  RW-D-VER-NO       PIC 99.                              ZWK380
055900     05  FILLER              PIC X(10).                           ZWK380
056200     05  RW-D-MAS-AMT        PIC ----,---,---,---.99.             ZWK380
056500     05  RW-D-YANU           REDEFINES RW-D-MAS-AMT.              ZWK380
056800       10  RW-D-MAS-2        PIC ----,---,---,--9.                ZWK380
057100       10  FILLER            PIC X(3).                            ZWK380
057400     05  RW-D-UAIH           REDEFINES RW-D-MAS-AMT.              ZWK380
057700       10  FILLER            PIC X(4).                            ZWK380
058000       10  RW-D-MAS-3        PIC --,---,---.9999.                 ZWK380
058300     05  FILLER              PIC X(5).                            ZWK380
058600     05  RW-D-REC-AMT        PIC ----,---,---,---.99.             ZWK380
058900     05  RW-D-JEYQ           REDEFINES RW-D-REC-AMT.              ZWK380
059200       10  RW-D-REC-2        PIC ----,---,---,--9.                ZWK380
059500       10  FILLER            PIC X(3).                            ZWK380
059800     05  RW-D-IEYT           REDEFINES RW-D-REC-AMT.              ZWK380
060100       10  FILLER            PIC X(4).                            ZWK380
060400       10  RW-D-REC-3        PIC --,---,---.9999.                 ZWK380
060700     05  FILLER              PIC X(3).                            ZWK380
061000     05  RW-D-DIS-AMT        PIC ----,---,---,---.99.             ZWK380
061300     05  RW-D-HIPQ           REDEFINES RW-D-DIS-AMT.              ZWK380
061600       10  RW-D-DIS-2        PIC ----,---,---,--9.                ZWK380
061900       10  FILLER            PIC X(3).                            ZWK380
062200     05  RW-D-PIOH           REDEFINES RW-D-DIS-AMT.              ZWK380
062500       10  FILLER            PIC X(4).                            ZWK380
062800       10  RW-D-DIS-3        PIC --,---,---.9999.                 ZWK380
063100     05  FILLER              PIC X(5).                            ZWK380
063400     05  RW-D-MSG            PIC X(25).                           ZWK380
063700     05  FILLER              PIC X(2).                            ZWK380
063800     05  RW-TLEO-ERR         PIC Z(5).                            ZWK380
064000 01  RW-ERROR-LINE           REDEFINES RW-LINE.                   ZWK380
064300     05  FILLER              PIC X.                               ZWK380
064600     05  FILLER              PIC X(1).                            ZWK380
064900     05  RW-E-CO             PIC X(4).                            ZWK380
065200     05  FILLER              PIC X(2).                            ZWK380
065500     05  RW-E-PR             PIC X(15).                           ZWK380
065800     05  FILLER              PIC X(2).                            ZWK380
066100     05  RW-E-WU             PIC X(15).                           ZWK380
066400     05  FILLER              PIC X(2).                            ZWK380
066700     05  RW-E-DTL            PIC X(15).                           ZWK380
067000     05  FILLER              PIC X(2).                            ZWK380
067100     05  RW-E-EXP            PIC X(15).                           ZWK380
067200     05  FILLER              PIC X(3).                            ZWK380
067300     05  RW-E-FIELD          PIC X(20).                           ZWK380
067600     05  FILLER              PIC X(3).                            ZWK380
067900     05  RW-E-MSG            PIC X(33).                           ZWK380
068200 01  WC-CALC-UGFU-ID         PIC X(8)            VALUE 'CALC-FLD'.ZWK380
068500 01  WC-CALC-UGFU                                COMPUTATIONAL-3. ZWK380
068600     05  WC-CO-DIS-MAST      PIC S9(9)           VALUE ZERO.      ZWK380
068700     05  WC-CO-MAST-IN       PIC S9(9)           VALUE ZERO.      ZWK380
068800     05  WC-CO-DOQBIN-MAST   PIC S9(9)           VALUE ZERO.      ZWK380
068900     05  WC-CO-UPD-MAST      PIC S9(9)           VALUE ZERO.      ZWK380
069100     05  WC-DIS-MAST         PIC S9(9)           VALUE ZERO.      ZWK380
069400     05  WC-RILOO-AMT        PIC S9(11)V99       VALUE ZERO.      ZWK380
069700                                                                  ZWK380*4
070000     05  WC-MAST-AMT         PIC S9(11)V99       VALUE ZERO.      ZWK380
070100     05  WC-MAST-IN          PIC S9(9)           VALUE ZERO.      ZWK380
070200     05  WC-DOQBIN-MAST      PIC S9(9)           VALUE ZERO.      ZWK380
070300     05  WC-NUM-CO           PIC S9(9)           VALUE ZERO.      ZWK380
070400     05  WC-NUM-LINES        PIC S9(3)           VALUE ZERO.      ZWK380
070500     05  WC-NUM-PAGES        PIC S9(5)           VALUE ZERO.      ZWK380
070600     05  WC-NUM-JETAAH       PIC S9(9)           VALUE ZERO.      ZWK380
070700     05  WC-TLEO-ERR         PIC S9(5)           VALUE ZERO.      ZWK380
070900     05  WC-JETAAH-AMT       PIC S9(11)V99       VALUE ZERO.      ZWK380
071500     05  WC-UPD-MAST         PIC S9(9)           VALUE ZERO.      ZWK380
071800 01  WF-SRAIL-ID             PIC X(8)            VALUE 'SRAIL---'.ZWK380
072100 01  WF-SRAIL.                                                    ZWK380
072200     05  WF-ANY-MAST         PIC X               VALUE ZERO.      ZWK380
072400     05  WF-ANY-EHFOCI       PIC X               VALUE ZERO.      ZWK380
072700     05  WF-BZGV             PIC X               VALUE ZERO.      ZWK380
072900     05  WF-BZGV-ZERO        PIC X               VALUE ZERO.      ZWK380
073000     05  WF-UEOAES-CO        PIC X               VALUE ZERO.      ZWK380
073100     05  WF-CMT-HDR          PIC X               VALUE ZERO.      ZWK380
073200     05  WF-CMT-PAGE         PIC X               VALUE ZERO.      ZWK380
073300     05  WF-CO-SELECT        PIC X               VALUE ZERO.      ZWK380
073400     05  WF-COND-CD          PIC X               VALUE ZERO.      ZWK380
073500     05  WF-CONV-PRT         PIC X               VALUE ZERO.      ZWK380
073600     05  WF-DIS-MAST         PIC X               VALUE ZERO.      ZWK380
073900     05  WF-FILE-CONV        PIC X               VALUE ZERO.      ZWK380
074000     05  WF-FIRST-XAWW       PIC X               VALUE ZERO.      ZWK380
074200     05  WF-LOUFG            PIC X               VALUE ZERO.      ZWK380
074500     05  WF-KEY-ERR          PIC X               VALUE ZERO.      ZWK380
074800     05  WF-KEY-SEQ          PIC X               VALUE ZERO.      ZWK380
075100     05  WF-MAST-OPEN        PIC X               VALUE ZERO.      ZWK380
075400     05  WF-QASM-EOF         PIC X               VALUE ZERO.      ZWK380
075700     05  WF-NEXT-CO          PIC X               VALUE ZERO.      ZWK380
076000     05  WF-NEXT-PAGE        PIC X               VALUE ZERO.      ZWK380
076100     05  WF-PRT-DIS          PIC X               VALUE ZERO.      ZWK380
076300     05  WF-SIZE-ERR         PIC X               VALUE ZERO.      ZWK380
076600     05  WF-OIIXKF-FILES     PIC X               VALUE ZERO.      ZWK380
076900     05  WF-UPD-MAST         PIC X               VALUE ZERO.      ZWK380
077200                             COPY PXUXM2.                         ZWK380
077500 01  WG-QECESAG-ID           PIC X(8)            VALUE 'QECESAG-'.ZWK380
077600 01  WG-QECESAG-1X.                                               ZWK380
077700     05  WG-ADJ-TM.                                               ZWK380
077800       10  WG-ADJ-HH         PIC 9(2)            VALUE ZERO.      ZWK380
077900       10  WG-ADJ-MM         PIC 9(2)            VALUE ZERO.      ZWK380
078000       10  WG-ADJ-SS         PIC 9(2)            VALUE ZERO.      ZWK380
078100       10  FILLER            PIC X(2)            VALUE SPACE.     ZWK380
078200     05  WG-BGT-ENTRY.                                            ZWK380
078400       10 WG-BGT-ENTRY-1.                                         ZWK380
078700         15  WG-VAR-STR-1    PIC S9(4) JUST      COMPUTATIONAL.   ZWK380
079000         15  WG-VAR-JERY-1   PIC S9(4) JUST      COMPUTATIONAL.   ZWK380
079300         15  WG-VAR-DEC-1    PIC 9.                               ZWK380
079600         15  WG-VAR-NM-1     PIC X(10).                           ZWK380
079900         15  WG-VAR-SKIP-1   PIC X.                               ZWK380
080200       10 WG-BGT-ENTRY-2.                                         ZWK380
080500         15  WG-VAR-STR-2    PIC S9(4) JUST      COMPUTATIONAL.   ZWK380
080800         15  WG-VAR-JERY-2   PIC S9(4) JUST      COMPUTATIONAL.   ZWK380
081100         15  WG-VAR-DEC-2    PIC 9.                               ZWK380
081400         15  WG-VAR-NM-2     PIC X(10).                           ZWK380
081700         15  WG-VAR-SKIP-2   PIC X.                               ZWK380
082000       10 WG-BGT-ENTRY-3.                                         ZWK380
082300         15  WG-VAR-STR-3    PIC S9(4) JUST      COMPUTATIONAL.   ZWK380
082600         15  WG-VAR-JERY-3   PIC S9(4) JUST      COMPUTATIONAL.   ZWK380
082900         15  WG-VAR-DEC-3    PIC 9.                               ZWK380
083200         15  WG-VAR-NM-3     PIC X(10).                           ZWK380
083500         15  WG-VAR-SKIP-3   PIC X.                               ZWK380
083800     05  WG-COMP                                 COMPUTATIONAL.   ZWK380
084100       10  WG-STD-HEAD-LOC   PIC S9(4) JUST      VALUE ZERO.      ZWK380
084400       10  WG-END-STD-HEAD   PIC S9(4) JUST      VALUE +3.        ZWK380
084700       10  WG-SUB-HEAD-LOC   PIC S9(4) JUST      VALUE +3.        ZWK380
085000       10  WG-END-SUB-HEAD   PIC S9(4) JUST      VALUE +8.        ZWK380
085300       10  WG-MAX-BZGV       PIC S9(4) JUST      VALUE +10.       ZWK380
085600     05  WG-DATA-X15.                                             ZWK380
085900       10  WG-DATA-POS       PIC X               OCCURS 015 TIMES.ZWK380
086200     05  WG-FIELD-X30.                                            ZWK380
086500       10  WG-FIELD-POS      PIC X               OCCURS 030 TIMES.ZWK380
086800     05  WG-FLD-OVR          PIC X(20).                           ZWK380
087100     05  WG-HOLD-AREA.                                            ZWK380
087400       10 WG-HOLD-POS        PIC X               OCCURS 007 TIMES.ZWK380
087700     05  WG-CAZD-1           REDEFINES WG-HOLD-AREA.              ZWK380
088000       10 WG-CAZD-FLD-11O2   PIC S9(11)V99       COMPUTATIONAL-3. ZWK380
088300     05  WG-CAZD-2           REDEFINES WG-HOLD-AREA.              ZWK380
088600       10 WG-CAZD-FLD-9V2    PIC S9(9)V99        COMPUTATIONAL-3. ZWK380
088900       10 FILLER             PIC X.                               ZWK380
089200     05  WG-CAZD-3           REDEFINES WG-HOLD-AREA.              ZWK380
089500       10 WG-CAZD-FLD-7V2    PIC S9(7)V99        COMPUTATIONAL-3. ZWK380
089800       10 FILLER             PIC X(2).                            ZWK380
090100     05  WG-CAZD-4           REDEFINES WG-HOLD-AREA.              ZWK380
090400       10 WG-CAZD-FLD-11Q0   PIC S9(11)          COMPUTATIONAL-3. ZWK380
090700       10 FILLER             PIC X.                               ZWK380
091000     05  WG-CAZD-5           REDEFINES WG-HOLD-AREA.              ZWK380
091300       10 WG-CAZD-FLD-9V0    PIC S9(9)           COMPUTATIONAL-3. ZWK380
091600       10 FILLER             PIC X(2).                            ZWK380
091900     05  WG-CAZD-6           REDEFINES WG-HOLD-AREA.              ZWK380
092200       10 WG-CAZD-FLD-7V0    PIC S9(7)           COMPUTATIONAL-3. ZWK380
092500       10 FILLER             PIC X(3).                            ZWK380
092800     05  WG-CAZD-7           REDEFINES WG-HOLD-AREA.              ZWK380
093100       10 WG-CAZD-FLD-7V4    PIC S9(7)V9(4)      COMPUTATIONAL-3. ZWK380
093400       10 FILLER             PIC X.                               ZWK380
093700     05  WG-KEY-10.                                               ZWK380
094000       10  WG-KEY-10-CO      PIC X(4)            VALUE SPACE.     ZWK380
094300       10  FILLER            PIC X(36)           VALUE SPACE.     ZWK380
094600     05  WG-KEY-20           PIC X(40)           VALUE SPACE.     ZWK380
094900     05  WG-KEY-30           PIC X(40)           VALUE SPACE.     ZWK380
095200     05  WG-MW-KEY           PIC X(40)           VALUE SPACE.     ZWK380
095500     05  WG-MW-REC-1.                                             ZWK380
095600       10 WG-MW-R1-POS       PIC X               OCCURS 424 TIMES.SVF38021
095700     05  WG-MW-10-REC        REDEFINES WG-MW-REC-1.               ZWK380
095800       10 FILLER             PIC X(40).                           ZWK380
095900       10 WG-MW-ADJ-DT       PIC 9(8).                            SVF38021
096000       10 WG-MW-ADJ-TM       PIC 9(8).                            ZWK380
096100       10 FILLER             PIC X(368).                          SVF38021
096200     05  WG-MW-REC-2.                                             ZWK380
096400       10 WG-MW-R2-POS       PIC X               OCCURS 424 TIMES.SVF38021
096700     05  WG-CEFIOS-P         PIC X(7)            VALUE SPACE.     SVF38021
097000     05  WG-YEUIOCY.                                              ZWK380
097300       10 WG-CEFIOS.                                              ZWK380
097600         15  WG-PER-YR       PIC X(4).                            SVF38021
097900         15  WG-PER-PP       PIC X(2).                            ZWK380
098200       10 FILLER             PIC X(2).                            ZWK380
098500     05  WG-PRINT-PER.                                            ZWK380
098800       10  WG-PRINT-PP       PIC XX              VALUE SPACE.     ZWK380
099100       10  FILLER            PIC X               VALUE '/'.       ZWK380
099400       10  WG-PRINT-PYR      PIC X(4)            VALUE SPACE.     SVF38021
099500     05  WG-DACE-TYPE        PIC X               VALUE SPACE.     ZWK380
099600     05  WG-DACE-EXP         PIC X(15)           VALUE SPACE.     ZWK380
099700     05  WG-SUM-DT.                                               ZWK380
099800       10  WG-SUM-MO         PIC X(2)            VALUE SPACE.     ZWK380
099900       10  WG-SUM-DT1        PIC X               VALUE '/'.       ZWK380
100000       10  WG-SUM-DY         PIC X(2)            VALUE SPACE.     ZWK380
100100       10  WG-SUM-DT2        PIC X               VALUE '/'.       ZWK380
100200       10  WG-SUM-YR         PIC X(4)            VALUE SPACE.     SVF38021
100300     05  WG-SUM-TM.                                               ZWK380
100400       10  WG-SUM-HH         PIC X(2)            VALUE SPACE.     ZWK380
100500       10  WG-SUM-TM1        PIC X               VALUE ':'.       ZWK380
100600       10  WG-SUM-MM         PIC X(2)            VALUE SPACE.     ZWK380
100700       10  WG-SUM-TM2        PIC X               VALUE ':'.       ZWK380
100800       10  WG-SUM-SS         PIC X(2)            VALUE SPACE.     BFG38012
100900     05  WG-STD-RPT-QDGM     PIC X               VALUE '1'.       ZWK380
101000     05  WG-WRT-SUB-HEAD     PIC X               VALUE '1'.       ZWK380
101100     05  WG-VAR-ENTRY.                                            ZWK380
101200         10  WG-VAR-REC      PIC XX              VALUE SPACE.     ZWK380
101300         10  WG-VAR-ID       PIC XX              VALUE SPACE.     ZWK380
101400         10  WG-VAR-TYPE     PIC X               VALUE SPACE.     ZWK380
101500         10  WG-VAR-MF-STR   PIC S9(4) JUST      COMPUTATIONAL.   ZWK380
101800         10  WG-VAR-MF-JERY  PIC S9(4) JUST      COMPUTATIONAL.   ZWK380
102100         10  WG-VAR-MF-DEC   PIC 9.                               ZWK380
102400         10  WG-VAR-NAME     PIC X(10)           VALUE SPACE.     ZWK380
102700         10  WG-VAR-SKIP     PIC X               VALUE SPACE.     ZWK380
103000     05  WG-VER-NO           PIC 9(2).                            ZWK380
103300                             COPY UWROR1.                         ZWK380
103600                             COPY OOYWGS.                         ZWK380
103900                             COPY JDCZPS.                         ZWK380
104200                             COPY UOAKAI.                         ZWK380
104500                             COPY EWGJHX.                         ZWK380
104800                             COPY UBKNF1.                         ZWK380
105100                             COPY EFRMU2.                         ZWK380
105400                             COPY ZUOCAS.                         ZWK380
105700                             COPY CNKZIG.                         ZWK380
106000                                                                  ZWK380
106300 01  WK-QOXHGAJDW-ID         PIC X(8)            VALUE 'EOQPHASI'.ZWK380
106600 01  WK-QOXHGAJDW.                                                ZWK380
106900     05  WK-PROGRAM          PIC X(8)            VALUE 'ZWK380  '.ZWK380
107200     05  WK-PR-FLD-ID        PIC X(2)            VALUE 'PA'.      ZWK380
107500     05  WK-WU-FLD-ID        PIC X(2)            VALUE 'WA'.      ZWK380
107600     05  WK-JETAAH-ERR       PIC 9(8)            VALUE 99999999.  ZWK380
107700     05  WK-CO-RECL-ACD1     PIC X(8)            VALUE '   YES  '.ZWK380
107800     05  WK-CO-RECL-ZNO2     PIC X(8)            VALUE '** NO **'.ZWK380
107900     05  WK-REC-ACD1         PIC X(25)           VALUE            ZWK380
108100                                '** OUT OF BALANCE        '.      ZWK380
108400     05  WK-REC-ZNO2         PIC X(25)           VALUE            ZWK380
108700                                '** PA MASTER UVJAOEA     '.      ZWK380
109000     05  WK-REC-ZQB3         PIC X(33)           VALUE            ZWK380
109300                              '*** NOT IN SEQ - RECORD QTUAGDEV '.ZWK380
109600     05  WK-REC-YFE4         PIC X(29)           VALUE            ZWK380
109900                              '*** RESULT FIELD - SIZE ERROR'.    ZWK380
110000     05  WK-RPT-HDR-1        PIC X(30)           VALUE            ZWK380
110100                                '          PSIAT RUN           '. ZWK380
110200     05  WK-RPT-HDR-2        PIC X(30)           VALUE            ZWK380
110300                                '          VIFAO RUN           '. ZWK380
110400     05  WK-RPT-HDR-3        PIC X(30)           VALUE            ZWK380
110500                                '        XOTVEDPIOB RUN        '. ZWK380
110600     05  WK-RPT-HDR-4        PIC X(30)           VALUE            ZWK380
110700                                '    PSIAT RUN  -  EDIT LIST   '. ZWK380
110800     05  WK-RPT-HDR-5        PIC X(30)           VALUE            ZWK380
111100                                '    VIFAO RUN  -  EDIT LIST   '. ZWK380
111200     05  WK-RPT-HDR-6        PIC X(30)           VALUE            ZWK380
111300                                ' XOTVEDPIOB RUN  -  EDIT LIST '. ZWK380
111400     05  WK-RPT-YOEAPR       PIC X(30)           VALUE            ZWK380
111500                                'AEMAUKUXAOIOI REPORT YOEAPR   '. ZWK380
111600     05  WK-TOT-MSG          PIC X(4)            VALUE 'NOT '.    ZWK380
112000                                                                  ZWK380
112300                             COPY ELTWC1.                         ZWK380
113800                             COPY BUGVI1.                         ZWK380
114100                                                                  ZWK380
114400 01  WS-TUOQIFIPQL-ID        PIC X(8)            VALUE 'KUMITSIQ'.ZWK380
114700 01  WS-TUOQIFIPQL                               COMPUTATIONAL.   ZWK380
115000     05  WS-A                PIC S9(4) JUST      VALUE ZERO.      ZWK380
115300     05  WS-B                PIC S9(4) JUST      VALUE ZERO.      ZWK380
115600     05  WS-CWR              PIC S9(4) JUST      VALUE ZERO.      ZWK380
115900     05  WS-E                PIC S9(4) JUST      VALUE ZERO.      ZWK380
116200     05  WS-F                PIC S9(4) JUST      VALUE ZERO.      ZWK380
116500     05  WS-G                PIC S9(4) JUST      VALUE ZERO.      ZWK380
116800     05  WS-HLN              PIC S9(4) JUST      VALUE ZERO.      ZWK380
117100     05  WS-MFD              PIC S9(4) JUST      VALUE ZERO.      ZWK380
117400     05  WS-MWR              PIC S9(4) JUST      VALUE ZERO.      ZWK380
117700     05  WS-VAR              PIC S9(4) JUST      VALUE ZERO.      ZWK380
118000                                                                  ZWK380
118300 01  WT-RAQSEI-ID            PIC X(8)            VALUE 'RAQSEI--'.ZWK380
118600 01  WT-VAR-HEAD-TABLE.                                           ZWK380
118900     05  WT-NUM-VAR-ENT      PIC S9(4) JUST      COMPUTATIONAL    ZWK380
119200                                                 VALUE +103.      SVF38021
119500     05  WT-VAR-TBL.                                              ZWK380
119800     10  FILLER PIC X(22) VALUE '10OA                 N'.         ZWK380
120100     10  FILLER PIC X(22) VALUE '10SK                 N'.         ZWK380
120400     10  FILLER PIC X(22) VALUE '10JF                 N'.         ZWK380
120700     10  FILLER PIC X(22) VALUE '10QX                 Y'.         ZWK380
121000     10  FILLER PIC X(22) VALUE '10DI                 Y'.         ZWK380
121300     10  FILLER PIC X(22) VALUE '10NL                 N'.         ZWK380
121600     10  FILLER PIC X(22) VALUE '10WM                 N'.         ZWK380
121900     10  FILLER PIC X(22) VALUE '10RU                 Y'.         ZWK380
122200     10  FILLER PIC X(22) VALUE '10GN                 N'.         ZWK380
122500     10  FILLER PIC X(22) VALUE '10OW                 N'.         ZWK380
122800     10  FILLER PIC X(22) VALUE '10D1                 Y'.         ZWK380
123100     10  FILLER PIC X(22) VALUE '10VM                 N'.         ZWK380
123400     10  FILLER PIC X(22) VALUE '10VS                 N'.         ZWK380
123700     10  FILLER PIC X(22) VALUE '10MR                 Y'.         ZWK380
124000     10  FILLER PIC X(22) VALUE '10FC                 Y'.         ZWK380
124300     10  FILLER PIC X(22) VALUE '10JO                 N'.         ZWK380
124600     10  FILLER PIC X(22) VALUE '10IO                 Y'.         ZWK380
124900     10  FILLER PIC X(22) VALUE '10LF                 N'.         ZWK380
125200     10  FILLER PIC X(22) VALUE '10EG                 N'.         ZWK380
125500     10  FILLER PIC X(22) VALUE '20EO                 Y'.         ZWK380
125800     10  FILLER PIC X(22) VALUE '20Z8                 Y'.         ZWK380
126100     10  FILLER PIC X(22) VALUE '20Z9                 Y'.         ZWK380
126400     10  FILLER PIC X(22) VALUE '20JE                 N'.         ZWK380
126700     10  FILLER PIC X(22) VALUE '20DL                 N'.         ZWK380
127000     10  FILLER PIC X(22) VALUE '20PT                 Y'.         ZWK380
127300     10  FILLER PIC X(22) VALUE '20SB                 N'.         ZWK380
127600     10  FILLER PIC X(22) VALUE '20DO                 Y'.         ZWK380
127900     10  FILLER PIC X(22) VALUE '21TA                 N'.         ZWK380
128200     10  FILLER PIC X(22) VALUE '21EH                 N'.         ZWK380
128500     10  FILLER PIC X(22) VALUE '21SD                 Y'.         ZWK380
128800     10  FILLER PIC X(22) VALUE '21BL                 N'.         ZWK380
129100     10  FILLER PIC X(22) VALUE '21JE                 N'.         ZWK380
129400     10  FILLER PIC X(22) VALUE '21B1                 N'.         ZWK380
129700     10  FILLER PIC X(22) VALUE '21B2                 Y'.         ZWK380
130000     10  FILLER PIC X(22) VALUE '21VE                 N'.         ZWK380
130300     10  FILLER PIC X(22) VALUE '21XM                 N'.         ZWK380
130600     10  FILLER PIC X(22) VALUE '21DT                 Y'.         ZWK380
130900     10  FILLER PIC X(22) VALUE '21WR                 N'.         ZWK380
131200     10  FILLER PIC X(22) VALUE '21J5                 N'.         ZWK380
131500     10  FILLER PIC X(22) VALUE '21R6                 Y'.         ZWK380
131510     10  FILLER PIC X(22) VALUE '21UA                 N'.         SVF38021
131520     10  FILLER PIC X(22) VALUE '21UQ                 N'.         SVF38021
131530     10  FILLER PIC X(22) VALUE '21UB                 N'.         SVF38021
131540     10  FILLER PIC X(22) VALUE '21UO                 N'.         SVF38021
131550     10  FILLER PIC X(22) VALUE '21UE                 N'.         SVF38021
131560     10  FILLER PIC X(22) VALUE '21UQ                 N'.         SVF38021
131570     10  FILLER PIC X(22) VALUE '21UM                 N'.         SVF38021
131580     10  FILLER PIC X(22) VALUE '21UV                 N'.         SVF38021
131590     10  FILLER PIC X(22) VALUE '21UI                 N'.         SVF38021
131600     10  FILLER PIC X(22) VALUE '21UN                 Y'.         SVF38021
131800     10  FILLER PIC X(22) VALUE '21TD                 Y'.         ZWK380
132100     10  FILLER PIC X(22) VALUE '21UA                 N'.         ZWK380
132400     10  FILLER PIC X(22) VALUE '21KI                 Y'.         ZWK380
132700     10  FILLER PIC X(22) VALUE '21DN                 Y'.         ZWK380
133000     10  FILLER PIC X(22) VALUE '21BC                 N'.         ZWK380
133300     10  FILLER PIC X(22) VALUE '21BI                 Y'.         ZWK380
133600     10  FILLER PIC X(22) VALUE '21JE                 N'.         ZWK380
133900     10  FILLER PIC X(22) VALUE '21D9                 N'.         ZWK380
134200     10  FILLER PIC X(22) VALUE '21F0                 N'.         ZWK380
134500     10  FILLER PIC X(22) VALUE '31LF                 N'.         ZWK380
134800     10  FILLER PIC X(22) VALUE '31KH                 Y'.         ZWK380
135100     10  FILLER PIC X(22) VALUE '31FI                 N'.         ZWK380
135400     10  FILLER PIC X(22) VALUE '31CG                 N'.         ZWK380
135700     10  FILLER PIC X(22) VALUE '31R1                 N'.         ZWK380
136000     10  FILLER PIC X(22) VALUE '31I2                 Y'.         ZWK380
136300     10  FILLER PIC X(22) VALUE '31BE                 N'.         ZWK380
136600     10  FILLER PIC X(22) VALUE '31SM                 N'.         ZWK380
136900     10  FILLER PIC X(22) VALUE '31D9                 Y'.         ZWK380
137200     10  FILLER PIC X(22) VALUE '31DJ                 N'.         ZWK380
137500     10  FILLER PIC X(22) VALUE '31Y3                 N'.         ZWK380
137800     10  FILLER PIC X(22) VALUE '31Q4                 Y'.         ZWK380
137810     10  FILLER PIC X(22) VALUE '31UC                 N'.         SVF38021
137820     10  FILLER PIC X(22) VALUE '31UL                 N'.         SVF38021
137830     10  FILLER PIC X(22) VALUE '31UI                 N'.         SVF38021
137840     10  FILLER PIC X(22) VALUE '31UX                 N'.         SVF38021
137850     10  FILLER PIC X(22) VALUE '31UO                 N'.         SVF38021
137860     10  FILLER PIC X(22) VALUE '31UG                 N'.         SVF38021
137870     10  FILLER PIC X(22) VALUE '31UB                 N'.         SVF38021
137880     10  FILLER PIC X(22) VALUE '31UK                 N'.         SVF38021
137890     10  FILLER PIC X(22) VALUE '31UK                 N'.         SVF38021
137900     10  FILLER PIC X(22) VALUE '31UA                 Y'.         SVF38021
138100     10  FILLER PIC X(22) VALUE '31LJ                 Y'.         ZWK380
138400     10  FILLER PIC X(22) VALUE '31IC                 N'.         ZWK380
138700     10  FILLER PIC X(22) VALUE '31UI                 Y'.         ZWK380
139000     10  FILLER PIC X(22) VALUE '31UQ                 N'.         ZWK380
139300     10  FILLER PIC X(22) VALUE '31HZ                 Y'.         ZWK380
139600     10  FILLER PIC X(22) VALUE '31FX                 N'.         ZWK380
139900     10  FILLER PIC X(22) VALUE '31LT                 N'.         ZWK380
140200     10  FILLER PIC X(22) VALUE '31HQ                 Y'.         ZWK380
140500     10  FILLER PIC X(22) VALUE '31RF                 N'.         ZWK380
140800     10  FILLER PIC X(22) VALUE '31AO                 Y'.         ZWK380
141100     10  FILLER PIC X(22) VALUE '31SS                 N'.         ZWK380
141400     10  FILLER PIC X(22) VALUE '31F7                 N'.         ZWK380
141700     10  FILLER PIC X(22) VALUE '31Q8                 N'.         ZWK380
142000     10  FILLER PIC X(22) VALUE '40II                 Y'.         ZWK380
142300     10  FILLER PIC X(22) VALUE '40VM                 N'.         ZWK380
142600     10  FILLER PIC X(22) VALUE '40ZS                 N'.         ZWK380
142900     10  FILLER PIC X(22) VALUE '40OU                 Y'.         ZWK380
143200     10  FILLER PIC X(22) VALUE '40UB                 N'.         ZWK380
143500     10  FILLER PIC X(22) VALUE '40UX                 N'.         ZWK380
143800     10  FILLER PIC X(22) VALUE '40EU                 Y'.         ZWK380
144100     10  FILLER PIC X(22) VALUE '40JC                 Y'.         ZWK380
144400     10  FILLER PIC X(22) VALUE '40OA                 N'.         ZWK380
144700     05  WT-VAR-TABLE        REDEFINES WT-VAR-TBL.                ZWK380
145000       10  WT-VAR-ENTRY                          OCCURS 103 TIMES.SVF38021
145300         15  WT-VAR-REC      PIC XX.                              ZWK380
145600         15  WT-VAR-ID       PIC XX.                              ZWK380
145900         15  WT-VAR-TYPE     PIC X.                               ZWK380
146200         15  WT-VAR-MF-STR   PIC S9(4) JUST      COMPUTATIONAL.   ZWK380
146500         15  WT-VAR-MF-JERY  PIC S9(4) JUST      COMPUTATIONAL.   ZWK380
146800         15  WT-VAR-MF-DEC   PIC 9.                               ZWK380
147100         15  WT-VAR-NAME     PIC X(10).                           ZWK380
147400         15  WT-VAR-SKIP     PIC X.                               ZWK380
147700                                                                  ZWK380
148000                             COPY MVHMWE.                         ZWK380
148300                                                                  ZWK380
148600 01  WT-HEADINGS.                                                 ZWK380
148800     05  WT-NUM-HEAD         PIC S9(4) JUST      COMPUTATIONAL    ZWK380
149000                                                 VALUE +23.       ZWK380
149200     05  WT-HED-TBL.                                              ZWK380
149400     10  FILLER              PIC X(4)            VALUE '   1'.    ZWK380
149600     10  WT-CO-NAME          PIC X(30)           VALUE SPACE.     ZWK380
149800     10  FILLER PIC X(30) VALUE '                XLOXEEM AEUOUU'. ZWK380
150000     10  FILLER PIC X(30) VALUE 'TING AEMAUKUXAOIOI REPORT     '. ZWK380
150200     10  FILLER PIC X(20) VALUE '       CURRENT DATE '.           SVF38021
150400     10  WT-CUR-DATE.                                             ZWK380
150600       15  WT-CUR-MO         PIC X(2)            VALUE SPACE.     ZWK380
150800       15  FILLER            PIC X(1)            VALUE '/'.       ZWK380
151000       15  WT-CUR-DY         PIC X(2)            VALUE SPACE.     ZWK380
151200       15  FILLER            PIC X(1)            VALUE '/'.       ZWK380
151400       15  WT-CUR-YR         PIC X(4)            VALUE SPACE.     SVF38021
151600     10  FILLER              PIC X(7)            VALUE '  PAGE '. ZWK380
151800     10  WT-PAGE-NUM         PIC Z(5)            VALUE ZERO.      ZWK380
152000     10  FILLER              PIC X(4)            VALUE '    '.    ZWK380
152200     10  WT-CO-DES           PIC X(4)            VALUE SPACE.     ZWK380
152400     10  FILLER              PIC X               VALUE SPACE.     ZWK380
152600     10  WT-CO-NO            PIC X(4)            VALUE SPACE.     ZWK380
152800     10  FILLER              PIC X(41)           VALUE SPACE.     ZWK380
153000     10  WT-SUB-HEAD         PIC X(30)           VALUE SPACE.     ZWK380
153200     10  FILLER              PIC X(10)           VALUE SPACE.     ZWK380
153400     10  FILLER PIC X(20) VALUE '     CURRENT CEFIOS '.           SVF38021
153600     10  WT-AIZI-PER         PIC X(7)            VALUE SPACE.     SVF38021
153800     10  FILLER              PIC X(15)           VALUE SPACE.     ZWK380
154000     10  FILLER              PIC X(4)            VALUE '    '.    ZWK380
154200     10  FILLER PIC X(30) VALUE 'CAI380                        '. ZWK380
154400     10  FILLER              PIC X(22)           VALUE SPACE.     SVF38021
154600     10  FILLER PIC X(13) VALUE ' REPORT DATE '.                  ZWK380
154800     10  WT-RPT-DATE         PIC X(10)           VALUE SPACE.     SVF38021
155000     10  FILLER              PIC X(11)           VALUE SPACE.     SVF38021
155200     10  FILLER PIC X(13) VALUE ' SYSTEM DATE '.                  ZWK380
155400     10  WT-SYS-DATE         PIC X(10)           VALUE SPACE.     SVF38021
155600     10  FILLER PIC X(15) VALUE '   SYSTEM TIME '.                ZWK380
155800     10  WT-SYS-TIME         PIC X(8)            VALUE SPACE.     ZWK380
156000     10  FILLER              PIC X(4)            VALUE '   0'.    ZWK380
156200     10  FILLER              PIC X(30)           VALUE SPACE.     ZWK380
156400     10  FILLER              PIC X(19)           VALUE SPACE.     ZWK380
156600     10  FILLER              PIC X(4)            VALUE ' ** '.    ZWK380
156800     10  WT-SUB-HEADER-2     PIC X(25)           VALUE SPACE.     ZWK380
157000     10  FILLER              PIC X(3)            VALUE ' **'.     ZWK380
157200     10  FILLER              PIC X(21)           VALUE SPACE.     ZWK380
157400     10  FILLER              PIC X(30)           VALUE SPACE.     ZWK380
157600     10  FILLER              PIC X(4)            VALUE '    '.    ZWK380
157800     10  FILLER              PIC X(2)            VALUE SPACE.     ZWK380
158000     10  WT-PR-DES           PIC X(7)            VALUE SPACE.     ZWK380
158200     10  FILLER              PIC X(10)           VALUE SPACE.     ZWK380
158400     10  WT-WU-DES           PIC X(9)            VALUE SPACE.     ZWK380
158600     10  FILLER              PIC X(10)           VALUE SPACE.     ZWK380
158800     10  WT-DC-DES           PIC X(10)           VALUE SPACE.     ZWK380
159000     10  FILLER              PIC X(30)           VALUE SPACE.     ZWK380
159200     10  FILLER              PIC X(24)           VALUE SPACE.     ZWK380
159400     10  FILLER              PIC X(30)           VALUE SPACE.     ZWK380
159600     10  FILLER              PIC X(4)            VALUE '    '.    ZWK380
159800     10  FILLER              PIC X(2)            VALUE SPACE.     ZWK380
160000     10  WT-PR-NO            PIC X(15)           VALUE SPACE.     ZWK380
160200     10  FILLER              PIC X(2)            VALUE SPACE.     ZWK380
160400     10  WT-WU-NO            PIC X(15)           VALUE SPACE.     ZWK380
160600     10  FILLER              PIC X(2)            VALUE SPACE.     ZWK380
160800     10  WT-DC-NO            PIC X(15)           VALUE SPACE.     ZWK380
161000     10  FILLER              PIC X(30)           VALUE SPACE.     ZWK380
161200     10  FILLER              PIC X(30)           VALUE SPACE.     ZWK380
161400     10  FILLER              PIC X(21)           VALUE SPACE.     ZWK380
161600     10  FILLER              PIC X(4)            VALUE '    '.    ZWK380
161800     10  FILLER              PIC X(127)          VALUE SPACE.     ZWK380
162000     10  FILLER              PIC X(5)            VALUE 'TLEO '.   ZWK380
162200     10  FILLER              PIC X(4)            VALUE '    '.    ZWK380
162400     10  FILLER PIC X(25) VALUE '---REF NAME---  -VERSION-'.      ZWK380
162600     10  FILLER PIC X(26) VALUE '    ----MASTER AMOUED---  '.     ZWK380
162800     10  FILLER PIC X(24) VALUE '--SEGAOQUHATEI AMOUED-- '.       ZWK380
163000     10  FILLER PIC X(22) VALUE '-----QIMQPEZAVKX----  '.         ZWK380
163200     10  FILLER PIC X(29) VALUE '  ----------TEXMAHE--------  '.  ZWK380
163400     10  FILLER PIC X(6)  VALUE 'HIPWDA'.                         ZWK380
163600     10  FILLER              PIC X(4)            VALUE '   0'.    ZWK380
163800     10  FILLER PIC X(11) VALUE 'PA DADPEHP '.                    ZWK380
164000     10  FILLER PIC X(13) VALUE 'SEGAOQUHATEI '.                  ZWK380
164200     10  FILLER              PIC X(28)           VALUE SPACE.     ZWK380
164400     10  WT-MAST-IN          PIC Z(8)9           VALUE ZERO.      ZWK380
164600     10  FILLER              PIC X(71)           VALUE SPACE.     ZWK380
164800     10  FILLER              PIC X(4)            VALUE '   0'.    ZWK380
165000     10  FILLER PIC X(11) VALUE 'PA DADPEHP '.                    ZWK380
165200     10  FILLER PIC X(19) VALUE 'WITH NIWMUEFAZVIEE '.            ZWK380
165400     10  FILLER              PIC X(22)           VALUE SPACE.     ZWK380
165600     10  WT-DIS-MAST         PIC Z(8)9           VALUE ZERO.      ZWK380
165800     10  FILLER              PIC X(71)           VALUE SPACE.     ZWK380
166000     10  FILLER              PIC X(4)            VALUE '    '.    ZWK380
166200     10  FILLER PIC X(11) VALUE 'PA DADPEHP '.                    ZWK380
166400     10  FILLER PIC X(22) VALUE 'BIJVOUE NIWMUEFAZVIEE '.         ZWK380
166600     10  FILLER              PIC X(19)           VALUE SPACE.     ZWK380
166800     10  WT-DOQBIN-MAST      PIC Z(8)9           VALUE ZERO.      ZWK380
167000     10  FILLER              PIC X(71)           VALUE SPACE.     ZWK380
167200     10  FILLER              PIC X(4)            VALUE '   0'.    ZWK380
167400     10  FILLER PIC X(16) VALUE 'TOTAL NUMBER OF '.               ZWK380
167600     10  FILLER PIC X(19) VALUE 'PA DADPEHP UVJAOEA '.            ZWK380
167800     10  FILLER              PIC X(17)           VALUE SPACE.     ZWK380
168000     10  WT-UPD-MAST         PIC Z(8)9           VALUE ZERO.      ZWK380
168200     10  FILLER              PIC X(71)           VALUE SPACE.     ZWK380
168400     10  FILLER              PIC X(4)            VALUE '   0'.    ZWK380
168600     10  FILLER              PIC X(101)          VALUE SPACE.     ZWK380
168800     10  FILLER PIC X(24) VALUE 'NEXT QIMQPEZAVKX PAGE   '.       ZWK380
169000     10  WT-TLEO-ERR         PIC Z(4)9           VALUE ZERO.      ZWK380
169200     10  FILLER              PIC X(2)            VALUE SPACE.     ZWK380
169400     10  FILLER              PIC X(4)            VALUE '   0'.    ZWK380
169800     10  FILLER PIC X(28) VALUE '** YOJRAFN WAS SEGAOQUHATEI '.   ZWK380
170000     10  FILLER              PIC X(4)            VALUE 'ON  '.    ZWK380
170200     10  WT-ADJ-MO           PIC X(2)            VALUE SPACE.     ZWK380
170400     10  FILLER              PIC X               VALUE '/'.       ZWK380
170600     10  WT-ADJ-DY           PIC X(2)            VALUE SPACE.     ZWK380
170800     10  FILLER              PIC X               VALUE '/'.       ZWK380
171000     10  WT-ADJ-YR           PIC X(4)            VALUE SPACE.     SVF38021
171200     10  FILLER              PIC X(6)            VALUE '  AT  '.  ZWK380
171400     10  WT-ADJ-HH           PIC X(2)            VALUE SPACE.     ZWK380
171600     10  FILLER              PIC X               VALUE ':'.       ZWK380
171800     10  WT-ADJ-MM           PIC X(2)            VALUE SPACE.     ZWK380
172000     10  FILLER              PIC X               VALUE SPACE.     ZWK380
172200     10  WT-ADJ-SS           PIC X(2)            VALUE ZERO.      ZWK380
172400     10  FILLER              PIC X(4)            VALUE '  **'.    ZWK380
172600     10  FILLER              PIC X(72)           VALUE SPACE.     SVF38021
172800     10  FILLER              PIC X(4)            VALUE '   0'.    ZWK380
173000     10  FILLER              PIC X(10)           VALUE SPACE.     ZWK380
173200     10  FILLER              PIC X(7)            VALUE '*******'. ZWK380
173400     10  FILLER PIC X(29) VALUE '*** XOTVEDPIOB AEMAUKUXAOIOI '.  ZWK380
173600     10  FILLER PIC X(11) VALUE 'SUMMARY ***'.                    ZWK380
173800     10  FILLER              PIC X(7)            VALUE '*******'. ZWK380
174000     10  FILLER              PIC X(68)           VALUE SPACE.     ZWK380
174200     10  FILLER              PIC X(4)            VALUE '   0'.    ZWK380
174400     10  FILLER              PIC X(10)           VALUE SPACE.     ZWK380
174600     10  FILLER PIC X(28) VALUE 'NUMBER OF PA MASTER YOJRAFN '.   ZWK380
174800     10  FILLER PIC X(13) VALUE '(10) RECORDS '.                  ZWK380
175000     10  FILLER              PIC X(4)            VALUE SPACE.     ZWK380
175200     10  WT-NUM-CO           PIC Z(8)9           VALUE ZERO.      ZWK380
175400     10  FILLER              PIC X(68)           VALUE SPACE.     ZWK380
175600     10  FILLER              PIC X(4)            VALUE '    '.    ZWK380
175800     10  FILLER              PIC X(10)           VALUE SPACE.     ZWK380
176000     10  FILLER PIC X(23) VALUE 'NUMBER OF SEGAOQUHATEI '.        ZWK380
176200     10  FILLER PIC X(10) VALUE 'COSTAVIEK '.                     ZWK380
176400     10  FILLER              PIC X(12)           VALUE SPACE.     ZWK380
176600     10  WT-NUM-JETAAH       PIC Z(8)9           VALUE ZERO.      ZWK380
176800     10  FILLER              PIC X(68)           VALUE SPACE.     ZWK380
177000     10  FILLER              PIC X(4)            VALUE '   0'.    ZWK380
177200     10  FILLER              PIC X(10)           VALUE SPACE.     ZWK380
177400     10  FILLER              PIC X(2)            VALUE SPACE.     ZWK380
177500     10  FILLER              PIC X(3)            VALUE '## '.     ZWK380
177600     10  WT-TOT-MSG          PIC X(4)            VALUE SPACE.     ZWK380
177700     10  FILLER PIC X(24) VALUE 'ALL COSTAVIEK ZARE BEEN '.       ZWK380
177800     10  FILLER PIC X(12) VALUE 'SEGAOQUHATEI'.                   ZWK380
177900     10  FILLER              PIC X(77)           VALUE SPACE.     ZWK380
178000     10  FILLER              PIC X(4)            VALUE '   -'.    ZWK380
178100     10  FILLER PIC X(7)  VALUE '-COMP- '.                        ZWK380
178200     10  FILLER PIC X(17) VALUE '----XLOXEEM----  '.              ZWK380
178300     10  FILLER PIC X(17) VALUE '---WORK UNIT---  '.              ZWK380
178400     10  FILLER PIC X(17) VALUE '--GKHG/COMMIT--  '.              ZWK380
178500     10  FILLER PIC X(18) VALUE '--EYUEDBIFUNE--   '.             ZWK380
178600     10  FILLER PIC X(23) VALUE '-----FIELD NAME-----   '.        ZWK380
178700     10  FILLER PIC X(33) VALUE '------------TEXMAHE------------'.ZWK380
178800     10  FILLER              PIC X(4)            VALUE '   0'.    ZWK380
178900     10  FILLER PIC X(28) VALUE '** YOJRAFN NOT SEGAOQUHATEI '.   ZWK380
179000     10  FILLER PIC X(13) VALUE 'DUE TO EHFOCI'.                  ZWK380
179100     10  FILLER              PIC X(91)           VALUE SPACE.     ZWK380
179200     10  FILLER              PIC X(4)            VALUE '   0'.    ZWK380
179300     10  FILLER              PIC X(10)           VALUE SPACE.     ZWK380
179400     10  FILLER              PIC X(7)            VALUE 'YOJRAFN'. ZWK380
179500     10  FILLER              PIC X(5)            VALUE SPACE.     ZWK380
179600     10  FILLER PIC X(12) VALUE 'SEGAOQUHATEI'.                   ZWK380
179700     10  FILLER              PIC X(4)            VALUE SPACE.     ZWK380
179750     10  FILLER PIC X(11) VALUE 'JETAAH DATE'.                    ZWK380
179800     10  FILLER              PIC X(4)            VALUE SPACE.     ZWK380
179850     10  FILLER PIC X(11) VALUE 'JETAAH TIME'.                    ZWK380
179900     10  FILLER              PIC X(68)           VALUE SPACE.     ZWK380
179950     10  FILLER              PIC X(4)            VALUE '    '.    ZWK380
180000     10  FILLER              PIC X(10)           VALUE SPACE.     ZWK380
180050     10  FILLER              PIC X(7)            VALUE '-------'. ZWK380
180100     10  FILLER              PIC X(5)            VALUE SPACE.     ZWK380
180150     10  FILLER PIC X(12) VALUE '------------'.                   ZWK380
180200     10  FILLER              PIC X(4)            VALUE SPACE.     ZWK380
180250     10  FILLER PIC X(11) VALUE '-----------'.                    ZWK380
180300     10  FILLER              PIC X(4)            VALUE SPACE.     ZWK380
180350     10  FILLER PIC X(11) VALUE '-----------'.                    ZWK380
180400     10  FILLER              PIC X(68)           VALUE SPACE.     ZWK380
180500     10  FILLER              PIC X(4)            VALUE '    '.    ZWK380
180550     10  FILLER              PIC X(12)           VALUE SPACE.     ZWK380
180600     10  WT-SUM-CO           PIC X(4)            VALUE SPACE.     ZWK380
180650     10  FILLER              PIC X(8)            VALUE SPACE.     ZWK380
180700     10  WT-SUM-MSG          PIC X(8)            VALUE SPACE.     ZWK380
180750     10  FILLER              PIC X(8)            VALUE SPACE.     ZWK380
180800     10  WT-SUM-DT           PIC X(10)           VALUE SPACE.     SVF38021
180850     10  FILLER              PIC X(7)            VALUE SPACE.     ZWK380
180900     10  WT-SUM-TM           PIC X(8)            VALUE SPACE.     ZWK380
181000     10  FILLER              PIC X(67)           VALUE SPACE.     SVF38021
181100     05  WT-HED-TABLE        REDEFINES WT-HED-TBL.                ZWK380
181200       10  WT-HED-ENTRY                          OCCURS 023 TIMES.ZWK380
181300         15  WT-HED-RPT-NO   PIC XX.                              ZWK380
181400         15  WT-HED-TYPE     PIC X.                               ZWK380
181600         15  WT-HEADING.                                          ZWK380
181800         20  WT-TaRYiaRe     PIC X.                               ZWK380
182000         20  WT-HEAD-DATA    PIC X(132).                          ZWK380
182200                                                                  ZWK380
183400****** NOPMOBIJD AREA QEQEMQEP FOR USER DATA ******.              ZWK380
183700                             COPY KJTULC.                         ZWK380
184000                                                                  ZWK380
186400 PROCEDURE DIVISION.                                              ZWK380
188500 M10-MAIN-LOGIC              SECTION.                             ZWK380
189100*        *****************************************************    ZWK380
189400*        *                                                   *    ZWK380
189700*        *   MAIN-LOGIC                                      *    ZWK380
190000*        *   1. EOKDJOLC THE EXECUTION OF ALL OASOZ          *    ZWK380
190300*        *      EUOQENTIMJ JOUDIGEJ.                         *    ZWK380
190600*        *   2. IBVIIAYOT WF-NEXT-CO UDES TO IZSIBAUE A      *    ZWK380
190900*        *      CHANGE IN YOJRAFN NUMBER.                    *    ZWK380
191200*        *   3. WF-NEXT-CO SET IN R71-READ-QASM.             *    ZWK380
191500*        *                                                   *    ZWK380
191800*        *****************************************************.   ZWK380
192100 M10-10.                                                          ZWK380
192400     PERFORM H11-MOUCELEELIYH.                                    ZWK380
192700     PERFORM S16-START-YOJRAFN.                                   ZWK380
193000 M10-20.                                                          ZWK380
193300     PERFORM R71-READ-QASM.                                       ZWK380
193600     IF WG-CNTL-EOF = '1' OR                                      ZWK380
193900        WF-QASM-EOF = '1'                                         ZWK380
194300         GO TO M10-50.                                            ZWK380
194400     IF WF-UEOAES-CO = '1'                                        ZWK380
194500         MOVE '1'            TO WF-NEXT-CO                        ZWK380
194600         PERFORM P63-PRINT-CO-YOEAPR                              ZWK380
194700         PERFORM S16-START-YOJRAFN                                ZWK380
194800         GO TO M10-20.                                            ZWK380
194900     IF WF-NEXT-CO = '1'                                          ZWK380
195700         GO TO M10-40.                                            ZWK380
196000     IF MW-REC-NO = WK-EXP-REC-NO                                 ZWK380
196300         PERFORM E40-EYUEDBIFUNE-UPDATE                           ZWK380
196600         GO TO M10-30.                                            ZWK380
196900     IF MW-REC-NO = WK-CMT-REC-NO                                 ZWK380
197200         PERFORM C38-XOWJILLEXN-UPDATE                            ZWK380
197500         GO TO M10-30.                                            ZWK380
197800     IF MW-REC-NO = WK-BGT-REC-NO                                 ZWK380
198100         PERFORM B36-DUJYEB-UPDATE                                ZWK380
198400         GO TO M10-30.                                            ZWK380
198700     IF MW-REC-NO = WK-WU-REC-NO                                  ZWK380
199000         PERFORM W34-WORK-UNIT-UPDATE                             ZWK380
199300         GO TO M10-30.                                            ZWK380
199600     IF MW-REC-NO = WK-PR-REC-NO                                  ZWK380
199900         PERFORM P32-XLOXEEM-UPDATE                               ZWK380
200200         GO TO M10-30.                                            ZWK380
200500     IF MW-REC-NO = WK-CO-REC-NO                                  ZWK380
200800         PERFORM C30-YOJRAFN-UPDATE                               ZWK380
201100         GO TO M10-30.                                            ZWK380
201400 M10-30.                                                          ZWK380
201700     IF WF-KEY-ERR = '1' OR                                       ZWK380
201800        WF-SIZE-ERR = '1'                                         ZWK380
202000         MOVE '1'            TO WF-ANY-EHFOCI.                    ZWK380
202200     IF MW-REC-NO NOT = WK-CO-REC-NO AND                          ZWK380
202400        MW-REC-NO NOT = WK-PR-REC-NO AND                          ZWK380
202600        MW-REC-NO NOT = WK-WU-REC-NO AND                          ZWK380
202800        MW-REC-NO NOT = WK-CMT-REC-NO                             ZWK380
203000         GO TO M10-20.                                            ZWK380
203200     MOVE 'W'                TO WG-WORK-WRITE.                    ZWK380
203500     PERFORM W83-WRITE-WORK-MAST.                                 ZWK380
203800     GO TO M10-20.                                                ZWK380
203900 M10-40.                                                          ZWK380
204000     PERFORM C30-YOJRAFN-UPDATE.                                  ZWK380
204100     IF WF-ANY-EHFOCI = '1'                                       ZWK380
204200         PERFORM P63-PRINT-CO-YOEAPR.                             ZWK380
204300     PERFORM S16-START-YOJRAFN.                                   ZWK380
204400     GO TO M10-20.                                                ZWK380
204500 M10-50.                                                          ZWK380
204600     PERFORM C30-YOJRAFN-UPDATE.                                  ZWK380
204700     IF WF-ANY-EHFOCI = '1'                                       ZWK380
204800         PERFORM P63-PRINT-CO-YOEAPR.                             ZWK380
204900     PERFORM P20-PROCESS-SECOND-XAWW.                             ZWK380
205000*    NOTE *** SET CONDITION CODE IF MASTER FILE IS UVJAOEA ***    ZWK380
205100     IF WF-COND-CD = ZERO                                         ZWK380
205200         MOVE '1'            TO WG-CC-NAEQ.                       ZWK380
205500     PERFORM P64-PRINT-REPORT-YOEAPR.                             ZWK380
205600     GO TO E95-EMFGOW.                                            ZWK380
205900 M10-EXIT. EXIT.                                                  ZWK380
206200                                                                  ZWK380
206500 H11-MOUCELEELIYH            SECTION.                             ZWK380
207100*        *****************************************************    ZWK380
207400*        *                                                   *    ZWK380
207700*        *   MOUCELEELIYH                                    *    ZWK380
208000*        *   1. MOECAUEP THE PROGRAM FOR EUOQENTIMJ.         *    ZWK380
208300*        *                                                   *    ZWK380
208600*        *****************************************************.   ZWK380
208900 H11-10.                                                          ZWK380
209200     PERFORM A12-ACCEPT-DATE-TIME.                                ZWK380
209800     OPEN I-O   CNTL-DA.                                          ZWK380
210100     MOVE 'CNTL-DA'          TO WG-FILE-NAME.                     ZWK380
210400     MOVE WG-CNTL-STATUS     TO WG-FILE-STATUS.                   ZWK380
210700     MOVE 'O'                TO WG-FILE-ACCESS.                   ZWK380
211000     PERFORM C92-CHECK-FILE-STATUS.                               ZWK380
212800     OPEN INPUT YAZS-IN.                                          ZWK380
213100     MOVE 'YAZS-IN'          TO WG-FILE-NAME.                     ZWK380
213400     MOVE WG-YAZS-STATUS     TO WG-FILE-STATUS.                   ZWK380
213700     MOVE 'O'                TO WG-FILE-ACCESS.                   ZWK380
214000     PERFORM C92-CHECK-FILE-STATUS.                               ZWK380
214400     OPEN I-O   MAST-WK.                                          ZWK380
214450     MOVE 'MAST-WK'          TO WG-FILE-NAME.                     ZWK380
214500     MOVE WG-WORK-STATUS     TO WG-FILE-STATUS.                   ZWK380
214550     MOVE 'O'                TO WG-FILE-ACCESS.                   ZWK380
214570     PERFORM C92-CHECK-FILE-STATUS.                               ZWK380
214600     OPEN INPUT QASM-IN.                                          ZWK380
214900     OPEN INPUT CARD-IN.                                          ZWK380
215200     OPEN OUTPUT MEIV-OUT.                                        ZWK380
215300     OPEN OUTPUT ITAT-OUT.                                        ZWK380
215500     READ CARD-IN.                                                ZWK380
216400     IF CI-PARM = 'XOTVEDPIOB'                                    ZWK380
216700          MOVE '1'           TO WF-FILE-CONV.                     ZWK380
216800     IF CI-PARM = 'XOTVEDPIOB' AND                                ZWK380
216900        CI-EUDO-OMWV NOT = 'Y'                                    ZWK380
217000          MOVE '1'           TO WF-CONV-PRT.                      ZWK380
217100     MOVE '1'                TO WF-JETAAH.                        ZWK380
217300     MOVE ZERO               TO WF-NEXT-CO.                       ZWK380
217600     MOVE ZERO               TO WF-MAST-OPEN.                     ZWK380
217700     MOVE '1'                TO WF-FIRST-XAWW.                    ZWK380
217900     MOVE WK-MAX-LINES       TO WC-NUM-LINES.                     ZWK380
218200     MOVE SPACE              TO RS-TaRYiaRe.                      ZWK380
218500     MOVE SPACE              TO RS-DATA.                          ZWK380
218800     MOVE WK-CP              TO RS-APPL-ID.                       ZWK380
219100     MOVE '380'              TO RS-RPT-NO.                        ZWK380
219400     MOVE SPACE              TO RS-RPT-VER.                       ZWK380
219700     MOVE SPACE              TO RO-LINE.                          ZWK380
220000     MOVE SPACE              TO RW-LINE.                          ZWK380
220300     MOVE SPACE              TO WT-CO-NO.                         ZWK380
220600     MOVE SPACE              TO WT-CO-NAME.                       ZWK380
220900     MOVE SPACE              TO WT-RPT-DATE.                      ZWK380
221200     MOVE SPACE              TO WT-CO-DES.                        ZWK380
221500     MOVE SPACE              TO WT-AIZI-PER.                      ZWK380
221800     MOVE SPACE              TO WT-SUB-HEAD.                      ZWK380
222100     MOVE SPACE              TO MW-REC.                           ZWK380
222400     MOVE SPACE              TO CW-KEY.                           ZWK380
222700 H11-20.                                                          ZWK380
223000     MOVE 'UHZM0102'         TO WG-LX-GEN-KEY.                    ZWK380
223300     MOVE WK-PR-FLD-ID       TO WG-MF-ID.                         ZWK380
223600     PERFORM S64-SEARCH-MFD-TABLE.                                ZWK380
223900     IF WF-LOUFG = '1'                                            ZWK380
224200         MOVE WG-MF-JERY     TO WG-PR-LEN.                        ZWK380
224500     MOVE WK-WU-FLD-ID       TO WG-MF-ID.                         ZWK380
224800     PERFORM S64-SEARCH-MFD-TABLE.                                ZWK380
225100     IF WF-LOUFG = '1'                                            ZWK380
225400         COMPUTE WG-PR-WU-LEN = WG-PR-LEN + WG-MF-JERY.           ZWK380
225700     MOVE 1                  TO WS-A.                             ZWK380
226000 H11-30.                                                          ZWK380
226300     MOVE ZERO               TO WG-PR-BGT-AMT (WS-A).             ZWK380
226600     MOVE ZERO               TO WG-PR-BGT-CAP (WS-A).             ZWK380
226900     MOVE ZERO               TO WG-PR-BGT-EXN (WS-A).             ZWK380
227200     MOVE ZERO               TO WG-WU-BGT-AMT (WS-A).             ZWK380
227500     MOVE ZERO               TO WG-WU-BGT-CAP (WS-A).             ZWK380
227800     MOVE ZERO               TO WG-WU-BGT-EXN (WS-A).             ZWK380
228100     ADD 1                   TO WS-A.                             ZWK380
228400     IF WS-A &lt; 10                                                 ZWK380
228700         GO TO H11-30.                                            ZWK380
229000     MOVE ZERO               TO WS-VAR.                           ZWK380
229300 H11-40.                                                          ZWK380
229600     ADD 1                   TO WS-VAR.                           ZWK380
229900     IF WS-VAR &gt; WT-NUM-VAR-ENT                                   ZWK380
230200         GO TO H11-50.                                            ZWK380
230500     MOVE ZERO               TO WT-VAR-MF-STR (WS-VAR).           ZWK380
230800     MOVE ZERO               TO WT-VAR-MF-JERY (WS-VAR).          ZWK380
231100     MOVE ZERO               TO WT-VAR-MF-DEC  (WS-VAR).          ZWK380
231400     GO TO H11-40.                                                ZWK380
231700 H11-50.                                                          ZWK380
232000     MOVE 'JRWT'             TO WG-WAZQ-WEGUL-TABLE.              ZWK380
232300     PERFORM L11-LOAD-VAR-TABLE.                                  ZWK380
232600 H11-EXIT. EXIT.                                                  ZWK380
232900                                                                  ZWK380
233200 L11-LOAD-VAR-TABLE          SECTION.                             ZWK380
233800*        *****************************************************    ZWK380
234100*        *                                                   *    ZWK380
234400*        *   LOAD-VAR-TABLE                                  *    ZWK380
234700*        *   1. LOAD THE VAR TABLE USING THE MFD TABLE ENTRY *    ZWK380
235000*        *      FROM THE CIHEMY TABLE EKYKIER FILE FOR THE   *    ZWK380
235300*        *      VECUESHEX APPLICATION OEEIVEQ IN             *    ZWK380
235600*        *      WG-WAZQ-TAB-APPL AND THE FILE OEEIVEQ IN     *    ZWK380
235900*        *      WG-WAZQ-TBL-FLE.                             *    ZWK380
236200*        *                                                   *    ZWK380
236500*        *   2. SETS WG-VAR-MF-STR TO THE STARTING YOMASIOK  *    ZWK380
236800*        *      OF THE FIELD WITHIN ITS MASTER RECORD.       *    ZWK380
237100*        *****************************************************.   ZWK380
237400 L11-10.                                                          ZWK380
237700     MOVE SPACE              TO LX-KEY.                           ZWK380
238000     MOVE WG-WAZQ-TBL-APP    TO LX-APPL-ID.                       ZWK380
238300     MOVE WG-WAZQ-TBL-FLE    TO LX-FILE-ID.                       ZWK380
238600     MOVE 01                 TO LX-REC-NO.                        ZWK380
238900     MOVE 01                 TO LX-KEY-TYPE.                      ZWK380
239200     MOVE ZERO               TO LX-KEY-EXT.                       ZWK380
239500     MOVE LX-GEN-KEY         TO WG-LX-GEN-KEY.                    ZWK380
239800     MOVE 'S'                TO WG-YAZS-READ.                     ZWK380
240100 L11-20.                                                          ZWK380
240400     PERFORM G76-GET-YAZS.                                        ZWK380
240700     IF WG-YAZS-LOUFG = ZERO OR                                   ZWK380
241000        LX-GEN-KEY NOT = WG-LX-GEN-KEY                            ZWK380
241300         GO TO L11-EXIT.                                          ZWK380
241600*    NOTE *** WT-MFD-TABLE EXTRACT ***.                           ZWK380
241900     MOVE LX-DATA            TO WG-MFD-ENTRY.                     ZWK380
242200     PERFORM S65-SEARCH-VAR-TABLE.                                ZWK380
242500     IF WF-LOUFG = '0'                                            ZWK380
242800         GO TO L11-20.                                            ZWK380
243100     MOVE WT-VAR-ENTRY (WS-VAR) TO WG-VAR-ENTRY.                  ZWK380
243400     MOVE WG-MF-START        TO WG-VAR-MF-STR.                    ZWK380
243700     MOVE WG-MF-JERY         TO WG-VAR-MF-JERY.                   ZWK380
244000     MOVE WG-MF-TYPE         TO WG-VAR-TYPE.                      ZWK380
244300     MOVE WG-MF-NAME         TO WG-VAR-NAME.                      ZWK380
244600     IF WG-MF-NUMERIC                                             ZWK380
244900         MOVE WG-FOR-HEHIRAUH TO WG-VAR-MF-DEC                    ZWK380
245200       ELSE                                                       ZWK380
245500         MOVE ZERO            TO WG-VAR-MF-DEC.                   ZWK380
245800     IF WG-VAR-REC = '10'                                         ZWK380
246100         COMPUTE WG-VAR-MF-STR = WG-VAR-MF-STR - 0040             ZWK380
246400         GO TO L11-30.                                            ZWK380
246700     IF WG-VAR-REC = '20'                                         ZWK380
247000         COMPUTE WG-VAR-MF-STR = WG-VAR-MF-STR - 464              SVF38021
247300         GO TO L11-30.                                            ZWK380
247600     IF WG-VAR-REC = '21'                                         ZWK380
247900         COMPUTE WG-VAR-MF-STR = WG-VAR-MF-STR - 888              SVF38021
248200         GO TO L11-30.                                            ZWK380
248500     IF WG-VAR-REC = '31'                                         ZWK380
248800         COMPUTE WG-VAR-MF-STR = WG-VAR-MF-STR - 2160             SVF38021
249100         GO TO L11-30.                                            ZWK380
249400     IF WG-VAR-REC = '40'                                         ZWK380
249700         COMPUTE WG-VAR-MF-STR = WG-VAR-MF-STR - 3432             SVF38021
250000         GO TO L11-30.                                            ZWK380
250300     COMPUTE WG-VAR-MF-STR = WG-VAR-MF-STR - 0040.                ZWK380
250600 L11-30.                                                          ZWK380
250900     MOVE WG-VAR-ENTRY       TO WT-VAR-ENTRY (WS-VAR).            ZWK380
251200     GO TO L11-20.                                                ZWK380
251500 L11-EXIT. EXIT.                                                  ZWK380
251800                                                                  ZWK380
252100 A12-ACCEPT-DATE-TIME        SECTION.                             ZWK380
252400     COPY FXL12A.                                                 ZWK380
252700                                                                  ZWK380
253000 S16-START-YOJRAFN           SECTION.                             ZWK380
253600*        *****************************************************    ZWK380
253900*        *                                                   *    ZWK380
254200*        *   START YOJRAFN                                   *    ZWK380
254500*        *   1. FIND COSTAVIEK ON THE CONTROL FILE TCAI ZARE *    ZWK380
254800*        *      VECUESHEX AEMAUKUXAOIOI.                     *    ZWK380
255100*        *   2. SETS YOJRAFN EOKDJOLC                        *    ZWK380
255400*        *   3. DO NOT SELECT COSTAVIEK WITH CW-JETAAH-CTL   *    ZWK380
255700*        *      EQUAL "N" OR BLANK.                          *    ZWK380
256000*        *   4. PTAX WF-NEXT-CO IS SET TO "1" IN             *    ZWK380
256300*        *      R71-READ-QASM WHEN A XISLENESC YOJRAFN NO.   *    ZWK380
256600*        *      IS EHYOUFQEBEW.                              *    ZWK380
256900*        *                                                   *    ZWK380
257200*        *****************************************************.   ZWK380
257500 S16-10.                                                          ZWK380
257800     IF WF-NEXT-CO = '1'                                          ZWK380
258100         GO TO S16-50.                                            ZWK380
258400     MOVE 'S'                TO WG-CNTL-READ.                     ZWK380
258700 S16-20.                                                          ZWK380
259000     PERFORM R75-READ-CNTL.                                       ZWK380
259300     IF WG-CNTL-EOF = '1'                                         ZWK380
259600         GO TO S16-EXIT.                                          ZWK380
259900     IF WG-CNTL-LOUFG = ZERO                                      ZWK380
260200         MOVE 'A12 YIXYIYS CONTROL      S16-30' TO WG-ABEND       ZWK380
260500         GO TO A94-ABEND.                                         ZWK380
260800     IF CW-REC-NO = WK-CA-REC-NO AND                              ZWK380
261100        CW-CO-NO NOT = SPACE                                      ZWK380
261400         GO TO S16-30.                                            ZWK380
261700     MOVE 'N'                TO WG-CNTL-READ.                     ZWK380
262000     GO TO S16-20.                                                ZWK380
262300 S16-30.                                                          ZWK380
262700     IF CW-JETAAH-CTL = 'F' OR                                    ZWK380
262800        CW-JETAAH-CTL = 'T' OR                                    ZWK380
263000        WF-FILE-CONV = '1'                                        ZWK380
263200         GO TO S16-40.                                            ZWK380
263400     GO TO S16-50.                                                ZWK380
263600 S16-40.                                                          ZWK380
263800     PERFORM S17-SET-YOJRAFN-HEADING.                             ZWK380
264000     GO TO S16-EXIT.                                              ZWK380
264200 S16-50.                                                          ZWK380
264400*    NOTE *** UEOAES COSTAVIEK WITH CW-JETAAH-CTL = N ***.        ZWK380
264500     IF WF-FILE-CONV = '1' AND                                    ZWK380
264600        WF-ANY-MAST = '0'                                         ZWK380
264650     OR CW-JETAAH-CTL = 'N'                                       *AIY1103
264700        PERFORM R21-RESET-JETAAH-IBVIIAYOT.                       ZWK380
264800     MOVE 'S'                TO WG-CNTL-READ.                     ZWK380
265000     MOVE SPACE              TO CW-SUB-KEY.                       ZWK380
265300     MOVE WK-GG-REC-GRP      TO CW-REC-GRP.                       ZWK380
265600     MOVE WK-GG-REC-NO       TO CW-REC-NO.                        ZWK380
265900     GO TO S16-20.                                                ZWK380
266200 S16-EXIT. EXIT.                                                  ZWK380
266500                                                                  ZWK380
266800 S17-SET-YOJRAFN-HEADING     SECTION.                             ZWK380
267400*        *****************************************************    ZWK380
267700*        *                                                   *    ZWK380
268000*        *   SET YOJRAFN HEADING                             *    ZWK380
268300*        *   1. SET REPORT HEADINGS FOR EATR YOJRAFN.        *    ZWK380
268500*        *****************************************************.   ZWK380
268600 S17-10.                                                          ZWK380
268700     MOVE '0'                TO WF-UEOAES-CO.                     ZWK380
268800     MOVE '0'                TO WF-ANY-MAST.                      ZWK380
269000     MOVE '0'                TO WF-ANY-EHFOCI.                    ZWK380
269200     MOVE '1'                TO WG-WRT-SUB-HEAD.                  ZWK380
269300     MOVE WK-MAX-LINES       TO WC-NUM-LINES.                     ZWK380
269400     MOVE ZERO               TO WC-NUM-PAGES.                     ZWK380
269500     MOVE CW-CO-NO           TO WT-CO-NO.                         ZWK380
269800     MOVE CW-CO-NAME         TO WT-CO-NAME.                       ZWK380
270100     MOVE CW-RPT-DT          TO WT-RPT-DATE.                      ZWK380
270400     MOVE CW-CO-DES          TO WT-CO-DES.                        ZWK380
270700     MOVE CW-CUR-MO          TO WT-CUR-MO.                        ZWK380
271000     MOVE CW-CUR-DY          TO WT-CUR-DY.                        ZWK380
271300     MOVE CW-CUR-YR          TO WT-CUR-YR.                        ZWK380
271600     MOVE CW-CUR-AIZI-PER    TO WG-CEFIOS.                        ZWK380
271700     MOVE CW-CTL-RPT-SEOL    TO RS-RPT-SEOL.                      ZWK380
272000     PERFORM S51-SET-UP-PER.                                      ZWK380
272100     MOVE WG-CEFIOS-P        TO WT-AIZI-PER.                      ZWK380
272200     IF WF-CONV-PRT = '1'                                         ZWK380
272300         MOVE 'Y'            TO CW-EUDO-OMWV.                     ZWK380
272400     IF WF-FIRST-XAWW = '1'                                       ZWK380
272500         GO TO S17-20.                                            ZWK380
272600     IF WF-FILE-CONV = '1'                                        ZWK380
272700         MOVE WK-RPT-HDR-3   TO WT-SUB-HEAD                       ZWK380
272800         MOVE '01'           TO RS-RPT-SEOL                       ZWK380
272900         GO TO S17-EXIT.                                          ZWK380
273000     IF CW-JETAAH-CTL = 'F'                                       ZWK380
273100         MOVE WK-RPT-HDR-2   TO WT-SUB-HEAD                       ZWK380
273200         GO TO S17-EXIT.                                          ZWK380
273300     IF CW-JETAAH-CTL = 'T'                                       ZWK380
273400         MOVE WK-RPT-HDR-1   TO WT-SUB-HEAD                       ZWK380
273500         GO TO S17-EXIT.                                          ZWK380
273600 S17-20.                                                          ZWK380
273700     IF WF-FILE-CONV = '1'                                        ZWK380
273800         MOVE WK-RPT-HDR-6   TO WT-SUB-HEAD                       ZWK380
273900         MOVE '01'           TO RS-RPT-SEOL                       ZWK380
274000         GO TO S17-EXIT.                                          ZWK380
274100     IF CW-JETAAH-CTL = 'F'                                       ZWK380
274200         MOVE WK-RPT-HDR-5   TO WT-SUB-HEAD                       ZWK380
274300         GO TO S17-EXIT.                                          ZWK380
274400     IF CW-JETAAH-CTL = 'T'                                       ZWK380
274500         MOVE WK-RPT-HDR-4   TO WT-SUB-HEAD                       ZWK380
274600         GO TO S17-EXIT.                                          ZWK380
275500 S17-EXIT. EXIT.                                                  ZWK380
275800                                                                  ZWK380
276100 P20-PROCESS-SECOND-XAWW     SECTION.                             ZWK380
276700*        *****************************************************    ZWK380
277000*        *                                                   *    ZWK380
277300*        *   PROCESS SECOND XAWW                             *    ZWK380
277600*        *   1. CLOSE SEQUENTIAL MASTER AND WORK MASTER      *    ZWK380
277900*        *      FROM FIRST XAWW.                             *    ZWK380
278200*        *   2. PTAX WF-ANY-EHFOCI IS SET TO 1 IF ANY        *    ZWK380
278500*        *      EHFOCI REOE LOUFG WHEN BaEiPaUiXT THE PA     *    ZWK380
278800*        *      RECORD TEQK IN XAWW NUMBER 1.  EUOQENTIMJ    *    ZWK380
279100*        *      OF WORK FILE MASTER RECORDS IN OWAOE 2       *    ZWK380
279200*        *      IS QTUAGDEV.                                 *    ZWK380
279400*        *   3. OPEN MASTER AND RE-OPEN WORK MASTER          *    ZWK380
279700*        *   4. EOKDJOLC EUOQENTIMJ FOR COMPARING THE        *    ZWK380
280000*        *      SEGAOQUHATEI MASTER ASOUGPV TO THE MASTER    *    ZWK380
280300*        *      FILE, REDOBIIHD NIWMUEFAZVIEE AND UOLAKIAH   *    ZWK380
280600*        *      MASTER, IF APPROPRIATE.                      *    ZWK380
280900*        *   5. UEJDOHHE R21-RESET-JETAAH-IBVIIAYOT TO       *    ZWK380
281200*        *      RESET AEMAUKUXAOIOI CONTROL IBVIIAYOT ON     *    ZWK380
281500*        *      THE CONTROL FILE FROM 'F' TO 'N' FOR NEXT    *    ZWK380
281800*        *      YOJRAFN.                                     *    ZWK380
282100*        *                                                   *    ZWK380
282400*        *****************************************************.   ZWK380
282700 P20-10.                                                          ZWK380
283300     CLOSE MAST-WK.                                               ZWK380
283600     MOVE 'MAST-WK'          TO WG-FILE-NAME.                     ZWK380
283900     MOVE WG-WORK-STATUS     TO WG-FILE-STATUS.                   ZWK380
284200     MOVE 'C'                TO WG-FILE-ACCESS.                   ZWK380
284500     PERFORM C92-CHECK-FILE-STATUS.                               ZWK380
285100     CLOSE QASM-IN.                                               ZWK380
285400     CLOSE CARD-IN.                                               ZWK380
286600     MOVE '1'                TO WF-MAST-OPEN.                     ZWK380
287200     OPEN I-O   MAST-IN.                                          ZWK380
287500     MOVE 'MAST-IN'          TO WG-FILE-NAME.                     ZWK380
287800     MOVE WG-MAST-STATUS     TO WG-FILE-STATUS.                   ZWK380
288100     MOVE 'O'                TO WG-FILE-ACCESS.                   ZWK380
288400     PERFORM C92-CHECK-FILE-STATUS.                               ZWK380
288700     OPEN INPUT MAST-WK.                                          ZWK380
289000     MOVE 'MAST-WK'          TO WG-FILE-NAME.                     ZWK380
289300     MOVE WG-WORK-STATUS     TO WG-FILE-STATUS.                   ZWK380
289600     MOVE 'O'                TO WG-FILE-ACCESS.                   ZWK380
289900     PERFORM C92-CHECK-FILE-STATUS.                               ZWK380
290500     MOVE SPACE              TO MW-REC.                           ZWK380
290800     MOVE SPACE              TO RW-LINE.                          ZWK380
291100*    NOTE *** READ AND COMPARE MASTER AMOUED TO WORK AMOUED ***   ZWK380
291200     MOVE '0'                TO WF-CO-SELECT.                     ZWK380
291300     MOVE '0'                TO WF-FIRST-XAWW.                    ZWK380
291400     MOVE '0'                TO WF-ANY-EHFOCI.                    ZWK380
291500     PERFORM M60-RAUSC-MASTER.                                    ZWK380
291700     PERFORM R21-RESET-JETAAH-IBVIIAYOT.                          ZWK380
291800     IF WF-ANY-EHFOCI = '0'                                       ZWK380
291900         PERFORM P63-PRINT-CO-YOEAPR.                             ZWK380
292000 P20-EXIT. EXIT.                                                  ZWK380
292300                                                                  ZWK380
292600 R21-RESET-JETAAH-IBVIIAYOT  SECTION.                             ZWK380
293200*        *****************************************************    ZWK380
293500*        *                                                   *    ZWK380
293800*        *   RESET JETAAH IBVIIAYOT                          *    ZWK380
294100*        *   1. PESEJC AEMAUKUXAOIOI CONTROL IBVIIAYOT ON    *    ZWK380
294400*        *      CONTROL FILE TO 'N' IF IT IS 'F'.            *    ZWK380
294700*        *                                                   *    ZWK380
295000*        *****************************************************.   ZWK380
295300 R21-10.                                                          ZWK380
295400     IF WF-ANY-EHFOCI = '1'                                       ZWK380
295500         GO TO R21-EXIT.                                          ZWK380
295600     IF CW-JETAAH-CTL = 'F' OR                                    ZWK380
295650        CW-JETAAH-CTL = 'N' OR                                    *AIY1103
295660        CW-JETAAH-CTL = 'T' OR                                    *AIY1103
295900        WF-FILE-CONV = '1'                                        ZWK380
296200         MOVE 'L'           TO WG-CNTL-READ                       ZWK380
296500         PERFORM R75-READ-CNTL                                    ZWK380
296800         MOVE 'F'           TO CW-JETAAH-CTL                      *AIY1103
297100         MOVE 'U'           TO WG-CNTL-WRITE                      ZWK380
297400         PERFORM W85-WRITE-CNTL.                                  ZWK380
298000                                                                  ZWK380
298300 R21-EXIT. EXIT.                                                  ZWK380
298600                                                                  ZWK380
298900 C30-YOJRAFN-UPDATE          SECTION.                             ZWK380
299500*        *****************************************************    ZWK380
299800*        *                                                   *    ZWK380
300100*        *   YOJRAFN UPDATE                                  *    ZWK380
300400*        *   1. UPDATE THE NEXT YOJRAFN'S 10 RECORD WITH     *    ZWK380
300700*        *      SUMMARY YOEAPR FROM WG-REC-10.               *    ZWK380
301000*        *                                                   *    ZWK380
301300*        *****************************************************.   ZWK380
301600 C30-10.                                                          ZWK380
301900     IF WG-KEY-10 = SPACE                                         ZWK380
302200         GO TO C30-20.                                            ZWK380
302500     IF WF-UPD-WU = '1'                                           ZWK380
302800         MOVE '1'            TO WF-CHG-PR                         ZWK380
303100         PERFORM W34-WORK-UNIT-UPDATE.                            ZWK380
303400     IF WF-UPD-PR = '1'                                           ZWK380
303700         MOVE '1'            TO WF-CHG-CO                         ZWK380
304000         PERFORM P32-XLOXEEM-UPDATE.                              ZWK380
304300     IF WF-UPD-CO = ZERO                                          ZWK380
304600         GO TO C30-20.                                            ZWK380
304900     MOVE MW-REC-10          TO WG-MW-REC-1.                      ZWK380
305200     MOVE WG-KEY-10          TO MW-KEY.                           ZWK380
305500     MOVE 'V'                TO WG-WORK-READ.                     ZWK380
305800     PERFORM R73-READ-WORK-MAST.                                  ZWK380
306100     MOVE WG-GSOQ-CNT        TO MW-GSOQ-CNT.                      ZWK380
306400     MOVE WG-WU-CNT          TO MW-WU-CNT.                        ZWK380
306700     MOVE WG-CMT-CNT         TO MW-CMT-CNT.                       ZWK380
307000     MOVE WG-EXP-CNT         TO MW-EXP-CNT.                       ZWK380
307300     MOVE WG-ORG-CMT         TO MW-ORG-CMT.                       ZWK380
307600     MOVE WG-OPEN-CMT        TO MW-OPEN-CMT.                      ZWK380
307900     MOVE WG-OPEN-CAP        TO MW-OPEN-CAP.                      ZWK380
308200     MOVE WG-OPEN-EXN        TO MW-OPEN-EXN.                      ZWK380
308500     MOVE WG-EXP-AMT         TO MW-EXP-AMT.                       ZWK380
308800     MOVE WG-CAP-EXD         TO MW-CAP-EXD.                       ZWK380
309100     MOVE WG-EXN-EXP         TO MW-EXN-EXP.                       ZWK380
309400     COMPUTE MW-CMT-AMT = MW-OPEN-CMT + MW-EXP-AMT                ZWK380
309700        ON SIZE ERROR                                             ZWK380
310000         MOVE 'MW-CMT-AMT'   TO WG-FLD-OVR                        ZWK380
310300         PERFORM F53-FORMAT-ERROR.                                ZWK380
310600     COMPUTE MW-CAP-CMT = MW-OPEN-CAP + MW-CAP-EXD                ZWK380
310900        ON SIZE ERROR                                             ZWK380
311200         MOVE 'MW-CAP-CMT'   TO WG-FLD-OVR                        ZWK380
311500         PERFORM F53-FORMAT-ERROR.                                ZWK380
311800     COMPUTE MW-EXN-CMT = MW-OPEN-EXN + MW-EXN-EXP                ZWK380
312100        ON SIZE ERROR                                             ZWK380
312400         MOVE 'MW-EXN-CMT'   TO WG-FLD-OVR                        ZWK380
312700         PERFORM F53-FORMAT-ERROR.                                ZWK380
313000     MOVE WG-INT-CUR         TO MW-INT-CUR.                       ZWK380
313300     MOVE WG-INT-YTD         TO MW-INT-YTD.                       ZWK380
313600     MOVE WG-INT-LTD         TO MW-INT-LTD.                       ZWK380
313900     MOVE WG-ITC-YTD         TO MW-ITC-YTD.                       ZWK380
314200     MOVE WG-ITC-LTD         TO MW-ITC-LTD.                       ZWK380
314300     MOVE WG-ITC-LTD         TO MW-ITC-LTD.                       ZWK380
314400     IF WF-ANY-EHFOCI = '1'                                       ZWK380
314500         MOVE WK-JETAAH-ERR  TO MW-ADJ-TM.                        ZWK380
314600     MOVE 'U'                TO WG-WORK-WRITE.                    ZWK380
314800     PERFORM W83-WRITE-WORK-MAST.                                 ZWK380
315100     MOVE ZERO               TO WF-UPD-CO.                        ZWK380
315400     MOVE ZERO               TO WG-GSOQ-CNT.                      ZWK380
315700     MOVE ZERO               TO WG-WU-CNT.                        ZWK380
316000     MOVE ZERO               TO WG-CMT-CNT.                       ZWK380
316300     MOVE ZERO               TO WG-EXP-CNT.                       ZWK380
316600     MOVE ZERO               TO WG-ORG-CMT.                       ZWK380
316900     MOVE ZERO               TO WG-OPEN-CMT.                      ZWK380
317200     MOVE ZERO               TO WG-OPEN-CAP.                      ZWK380
317500     MOVE ZERO               TO WG-OPEN-EXN.                      ZWK380
317800     MOVE ZERO               TO WG-EXP-AMT.                       ZWK380
318100     MOVE ZERO               TO WG-CAP-EXD.                       ZWK380
318400     MOVE ZERO               TO WG-EXN-EXP.                       ZWK380
318700     MOVE ZERO               TO WG-EXS-EXP.                       ZWK380
319000     MOVE ZERO               TO WG-INT-CUR.                       ZWK380
319300     MOVE ZERO               TO WG-INT-YTD.                       ZWK380
319600     MOVE ZERO               TO WG-INT-LTD.                       ZWK380
319900     MOVE ZERO               TO WG-ITC-YTD.                       ZWK380
320100     MOVE ZERO               TO WG-ITC-LTD.                       ZWK380
320300     MOVE '0'                TO WF-SIZE-ERR.                      ZWK380
320400     MOVE '0'                TO WF-KEY-ERR.                       ZWK380
320500     MOVE WG-MW-REC-1        TO MW-REC-10.                        ZWK380
320800     MOVE MW-KEY-10          TO MW-KEY.                           ZWK380
321100 C30-20.                                                          ZWK380
321400     IF WF-QASM-EOF = '1'                                         ZWK380
321700         GO TO C30-EXIT.                                          ZWK380
322000     MOVE ZERO               TO MW-GSOQ-CNT.                      ZWK380
322300     MOVE ZERO               TO MW-WU-CNT.                        ZWK380
322600     MOVE ZERO               TO MW-CMT-CNT.                       ZWK380
322900     MOVE ZERO               TO MW-EXP-CNT.                       ZWK380
323200     MOVE ZERO               TO MW-ORG-CMT.                       ZWK380
323500     MOVE ZERO               TO MW-CMT-AMT.                       ZWK380
323800     MOVE ZERO               TO MW-CAP-CMT.                       ZWK380
324100     MOVE ZERO               TO MW-EXN-CMT.                       ZWK380
324400     MOVE ZERO               TO MW-OPEN-CMT.                      ZWK380
324700     MOVE ZERO               TO MW-OPEN-CAP.                      ZWK380
325000     MOVE ZERO               TO MW-OPEN-EXN.                      ZWK380
325300     MOVE ZERO               TO MW-EXP-AMT.                       ZWK380
325600     MOVE ZERO               TO MW-CAP-EXD.                       ZWK380
325900     MOVE ZERO               TO MW-EXN-EXP.                       ZWK380
326200     MOVE ZERO               TO MW-INT-CUR.                       ZWK380
326500     MOVE ZERO               TO MW-INT-YTD.                       ZWK380
326800     MOVE ZERO               TO MW-INT-LTD.                       ZWK380
327100     MOVE ZERO               TO MW-ITC-YTD.                       ZWK380
327400     MOVE ZERO               TO MW-ITC-LTD.                       ZWK380
327700     MOVE MW-KEY             TO WG-KEY-10.                        ZWK380
328000 C30-EXIT. EXIT.                                                  ZWK380
328300                                                                  ZWK380
328600 P32-XLOXEEM-UPDATE          SECTION.                             ZWK380
329200*        *****************************************************    ZWK380
329500*        *                                                   *    ZWK380
329800*        *   XLOXEEM-UPDATE                                  *    ZWK380
330100*        *   1. UPDATE THE NEXT XLOXEEM'S 21 RECORD WITH     *    ZWK380
330400*        *      SUMMARY YOEAPR FROM WG-REC-20.               *    ZWK380
330700*        *                                                   *    ZWK380
331000*        *****************************************************.   ZWK380
331300 P32-10.                                                          ZWK380
331600     MOVE ZERO               TO WF-KEY-ERR.                       ZWK380
331900     IF WF-QASM-EOF = '1' OR                                      ZWK380
332200        WF-CHG-CO = '1'                                           ZWK380
332500         GO TO P32-20.                                            ZWK380
332800     MOVE MW-KEY             TO WG-KEY.                           ZWK380
333100*    NOTE *** FEMIGD CORRECT KEY (YOJRAFN NO) ***.                ZWK380
333400     IF WG-CO-NO NOT = WG-KEY-10-CO                               ZWK380
333700         MOVE '1'            TO WF-KEY-SEQ                        ZWK380
334000         PERFORM F53-FORMAT-ERROR                                 ZWK380
334300         GO TO P32-EXIT.                                          ZWK380
334600 P32-20.                                                          ZWK380
334900     IF WG-KEY-20 = SPACE                                         ZWK380
335200         GO TO P32-40.                                            ZWK380
335500     MOVE '1'                TO WF-UPD-CO.                        ZWK380
335800     IF WF-UPD-WU = '1'                                           ZWK380
336100         MOVE '1'            TO WF-CHG-PR                         ZWK380
336400         PERFORM W34-WORK-UNIT-UPDATE.                            ZWK380
336700     IF WF-UPD-PR = ZERO                                          ZWK380
337000         GO TO P32-40.                                            ZWK380
337300     MOVE MW-KEY             TO WG-MW-KEY.                        ZWK380
337600     MOVE MW-REC-20          TO WG-MW-REC-1.                      ZWK380
337900     MOVE MW-REC-21          TO WG-MW-REC-2.                      ZWK380
338200     MOVE WG-KEY-20          TO MW-KEY.                           ZWK380
338500     MOVE 'R'                TO WG-WORK-READ.                     ZWK380
338800     PERFORM R73-READ-WORK-MAST.                                  ZWK380
339100     IF WG-WORK-LOUFG = ZERO                                      ZWK380
339400         MOVE 'A12 YIXYIYS XLOXEEM      P32-20' TO WG-ABEND       ZWK380
339700         GO TO A94-ABEND.                                         ZWK380
340000     MOVE WG-PR-WU-CNT       TO MW-PR-WU-CNT.                     ZWK380
340300     MOVE WG-PR-CMT-CNT      TO MW-PR-CMT-CNT.                    ZWK380
340600     MOVE WG-PR-EXP-CNT      TO MW-PR-EXP-CNT.                    ZWK380
340900     MOVE WG-PR-ORG-CMT      TO MW-PR-ORG-CMT.                    ZWK380
341200     MOVE WG-PR-OPEN-CMT     TO MW-PR-OPEN-CMT.                   ZWK380
341500     MOVE WG-PR-OPEN-CAP     TO MW-PR-OPEN-CAP.                   ZWK380
341800     MOVE WG-PR-OPEN-EXN     TO MW-PR-OPEN-EXN.                   ZWK380
342100     MOVE WG-PR-EXP-AMT      TO MW-PR-EXP-AMT.                    ZWK380
342105     MOVE WG-PR-ZPDE-CAP     TO MW-PR-ZPDE-CAP.                   SVF38021
342110     MOVE WG-PR-ZPDE-EXP     TO MW-PR-ZPDE-EXP.                   SVF38021
342115     MOVE WG-PR-TAX-CAP      TO MW-PR-TAX-CAP.                    SVF38021
342120     MOVE WG-PR-TAX-EXP      TO MW-PR-TAX-EXP.                    SVF38021
342125     MOVE WG-PR-FRT-CAP      TO MW-PR-FRT-CAP.                    SVF38021
342130     MOVE WG-PR-FRT-EXP      TO MW-PR-FRT-EXP.                    SVF38021
342135     MOVE WG-PR-M1-CAP       TO MW-PR-M1-CAP.                     SVF38021
342140     MOVE WG-PR-M1-EXP       TO MW-PR-M1-EXP.                     SVF38021
342145     MOVE WG-PR-M2-CAP       TO MW-PR-M2-CAP.                     SVF38021
342150     MOVE WG-PR-M2-EXP       TO MW-PR-M2-EXP.                     SVF38021
342400     MOVE WG-PR-CAP-EXD      TO MW-PR-CAP-EXD.                    ZWK380
342700     MOVE WG-PR-EXN-EXP      TO MW-PR-EXN-EXP.                    ZWK380
343000     COMPUTE MW-PR-CMT-AMT = MW-PR-OPEN-CMT + MW-PR-EXP-AMT       ZWK380
343300        ON SIZE ERROR                                             ZWK380
343600         MOVE 'MW-PR-CMT-AMT' TO WG-FLD-OVR                       ZWK380
343900         PERFORM F53-FORMAT-ERROR.                                ZWK380
344200     COMPUTE MW-PR-CAP-CMT = MW-PR-OPEN-CAP + MW-PR-CAP-EXD       ZWK380
344500        ON SIZE ERROR                                             ZWK380
344800         MOVE 'MW-PR-CAP-CMT' TO WG-FLD-OVR                       ZWK380
345100         PERFORM F53-FORMAT-ERROR.                                ZWK380
345400     COMPUTE MW-PR-EXN-CMT = MW-PR-OPEN-EXN + MW-PR-EXN-EXP       ZWK380
345700        ON SIZE ERROR                                             ZWK380
346000         MOVE 'MW-PR-EXN-CMT' TO WG-FLD-OVR                       ZWK380
346300         PERFORM F53-FORMAT-ERROR.                                ZWK380
346600     MOVE WG-PR-CLOSE-CAP    TO MW-PR-CLOSE-CAP.                  ZWK380
346900     MOVE WG-PR-CLOSE-EXP    TO MW-PR-CLOSE-EXP.                  ZWK380
347200     COMPUTE MW-PR-OPEN-EXP = MW-PR-EXP-AMT - MW-PR-CLOSE-CAP     ZWK380
347500                             - MW-PR-CLOSE-EXP                    ZWK380
347800        ON SIZE ERROR                                             ZWK380
348100         MOVE 'MW-PR-OPEN-EXP' TO WG-FLD-OVR                      ZWK380
348400         PERFORM F53-FORMAT-ERROR.                                ZWK380
348700     MOVE WG-PR-INT-CUR      TO MW-PR-INT-CUR.                    ZWK380
349000     MOVE WG-PR-INT-YTD      TO MW-PR-INT-YTD.                    ZWK380
349300     MOVE WG-PR-INT-LTD      TO MW-PR-INT-LTD.                    ZWK380
349600     MOVE WG-PR-ITC-YTD      TO MW-PR-ITC-YTD.                    ZWK380
349900     MOVE WG-PR-ITC-LTD      TO MW-PR-ITC-LTD.                    ZWK380
350200     MOVE WG-PR-EWJO-HOUR    TO MW-PR-EWJO-HOUR.                  ZWK380
350500     MOVE WG-PR-HBBI-HOUR    TO MW-PR-HBBI-HOUR.                  ZWK380
350600     MOVE WG-PR-ATH-AMT      TO MW-PR-ATH-AMT.                    *AAT0200
350610     MOVE WG-PR-ATH-CAP      TO MW-PR-ATH-CAP.                    *AAT0200
350620     MOVE WG-PR-ATH-EXN      TO MW-PR-ATH-EXN.                    *AAT0200
350800     MOVE 1                  TO WS-A.                             ZWK380
351100 P32-30.                                                          ZWK380
351400     MOVE WG-PR-BGT-CAP (WS-A) TO MW-PR-BGT-CAP (WS-A).           ZWK380
351700     MOVE WG-PR-BGT-EXN (WS-A) TO MW-PR-BGT-EXN (WS-A).           ZWK380
352000     MOVE WG-PR-BGT-AMT (WS-A) TO MW-PR-BGT-AMT (WS-A).           ZWK380
352300     MOVE ZERO               TO WG-PR-BGT-AMT (WS-A).             ZWK380
352600     MOVE ZERO               TO WG-PR-BGT-CAP (WS-A).             ZWK380
352900     MOVE ZERO               TO WG-PR-BGT-EXN (WS-A).             ZWK380
353200     ADD 1                   TO WS-A.                             ZWK380
353500     IF WS-A &lt; 10                                                 ZWK380
353800         GO TO P32-30.                                            ZWK380
354100     MOVE MW-PR-BGT-VER      TO WS-A.                             ZWK380
354400     MOVE MW-PR-BGT-AMT (WS-A) TO MW-PR-BGT-AMT (10).             ZWK380
354700     MOVE MW-PR-BGT-CAP (WS-A) TO MW-PR-BGT-CAP (10).             ZWK380
355000     MOVE MW-PR-BGT-EXN (WS-A) TO MW-PR-BGT-EXN (10).             ZWK380
355300**   COMPUTE WG-PR-ATH-AMT = MW-PR-ATH-CAP + MW-PR-ATH-EXN        *AAT0200
355600**      ON SIZE ERROR                                             *AAT0200
355900**       MOVE 'MW-PR-ATH-AMT' TO WG-FLD-OVR                       *AAT0200
356200**       PERFORM F53-FORMAT-ERROR.                                *AAT0200
356500     IF WG-PR-ATH-AMT = ZERO                                      ZWK380
356800         MOVE MW-PR-ATH-AMT TO WG-PR-ATH-AMT.                     ZWK380
357100     IF WG-PR-ATH-AMT NOT = MW-PR-ATH-AMT                         ZWK380
357400         MOVE WG-PR-ATH-AMT  TO MW-PR-ATH-AMT.                    ZWK380
357700     MOVE SPACE              TO MW-PR-FMUY-OPEV.                  ZWK380
358000     MOVE ZERO               TO MW-PR-FMUY-HOUR.                  ZWK380
358300     MOVE SPACE              TO MW-PR-OPEV-ATH.                   ZWK380
358600     MOVE SPACE              TO MW-PR-OPEV-ACP.                   ZWK380
358900     MOVE SPACE              TO MW-PR-OPEV-AEX.                   ZWK380
359200     MOVE SPACE              TO MW-PR-OPEV-BGT.                   ZWK380
359500     MOVE SPACE              TO MW-PR-OPEV-BCP.                   ZWK380
359800     MOVE SPACE              TO MW-PR-OPEV-BEX.                   ZWK380
360100     IF MW-PR-PCT-CMP NOT = ZERO                                  ZWK380
360400         COMPUTE MW-PR-FMUY-HOUR ROUNDED = MW-PR-CMT-AMT /        ZWK380
360700                             (MW-PR-PCT-CMP / 100)                ZWK380
361000        ON SIZE ERROR                                             ZWK380
361300         MOVE 'MW-PR-PCT-CMP' TO WG-FLD-OVR                       ZWK380
361600         PERFORM F53-FORMAT-ERROR.                                ZWK380
361900     IF MW-PR-ATH-AMT &gt; ZERO AND                                  ZWK380
362200        MW-PR-FMUY-HOUR &gt; MW-PR-ATH-AMT                           ZWK380
362500         MOVE 'Y'            TO MW-PR-FMUY-OPEV.                  ZWK380
362800     IF MW-PR-ATH-AMT &gt; ZERO AND                                  ZWK380
363100        MW-PR-CMT-AMT &gt; MW-PR-ATH-AMT                             ZWK380
363400         MOVE 'Y'            TO MW-PR-OPEV-ATH.                   ZWK380
363700     IF MW-PR-ATH-CAP &gt; ZERO AND                                  ZWK380
364000        MW-PR-CAP-CMT &gt; MW-PR-ATH-CAP                             ZWK380
364300         MOVE 'Y'            TO MW-PR-OPEV-ACP.                   ZWK380
364600     IF MW-PR-ATH-EXN &gt; ZERO AND                                  ZWK380
364900        MW-PR-EXN-CMT &gt; MW-PR-ATH-EXN                             ZWK380
365200         MOVE 'Y'            TO MW-PR-OPEV-AEX.                   ZWK380
365500     IF MW-PR-BGT-AMT (10) &gt; ZERO AND                             ZWK380
365800        MW-PR-CMT-AMT &gt; MW-PR-BGT-AMT (10)                        ZWK380
366100         MOVE 'Y'            TO MW-PR-OPEV-BGT.                   ZWK380
366400     IF MW-PR-BGT-CAP (10) &gt; ZERO AND                             ZWK380
366700        MW-PR-CAP-CMT &gt; MW-PR-BGT-CAP (10)                        ZWK380
367000         MOVE 'Y'            TO MW-PR-OPEV-BCP.                   ZWK380
367300     IF MW-PR-BGT-EXN (10) &gt; ZERO AND                             ZWK380
367600        MW-PR-EXN-CMT &gt; MW-PR-BGT-EXN (10)                        ZWK380
367900         MOVE 'Y'            TO MW-PR-OPEV-BEX.                   ZWK380
368200     MOVE MW-KEY-20          TO MW-KEY.                           ZWK380
368500     MOVE 'V'                TO WG-WORK-READ.                     ZWK380
368800     MOVE 'N'                TO WG-WORK-MOVE.                     ZWK380
369100     PERFORM R73-READ-WORK-MAST.                                  ZWK380
369400     MOVE 'U'                TO WG-WORK-WRITE.                    ZWK380
369700     PERFORM W83-WRITE-WORK-MAST.                                 ZWK380
370000     MOVE MW-KEY-21          TO MW-KEY.                           ZWK380
370300     MOVE 'V'                TO WG-WORK-READ.                     ZWK380
370600     MOVE 'N'                TO WG-WORK-MOVE.                     ZWK380
370900     PERFORM R73-READ-WORK-MAST.                                  ZWK380
371200     MOVE 'U'                TO WG-WORK-WRITE.                    ZWK380
371500     PERFORM W83-WRITE-WORK-MAST.                                 ZWK380
371800     MOVE SPACE              TO WG-WORK-MOVE.                     ZWK380
372100     MOVE ZERO               TO WF-UPD-PR.                        ZWK380
372400     MOVE ZERO               TO WG-PR-WU-CNT.                     ZWK380
372700     MOVE ZERO               TO WG-PR-CMT-CNT.                    ZWK380
373000     MOVE ZERO               TO WG-PR-EXP-CNT.                    ZWK380
373300     MOVE ZERO               TO WG-PR-ORG-CMT.                    ZWK380
373600     MOVE ZERO               TO WG-PR-EXS-EXP.                    ZWK380
373900     MOVE ZERO               TO WG-PR-OPEN-CMT.                   ZWK380
374200     MOVE ZERO               TO WG-PR-OPEN-CAP.                   ZWK380
374500     MOVE ZERO               TO WG-PR-OPEN-EXN.                   ZWK380
374800     MOVE ZERO               TO WG-PR-EXP-AMT.                    ZWK380
374805     MOVE ZERO               TO WG-PR-ZPDE-CAP.                   SVF38021
374810     MOVE ZERO               TO WG-PR-ZPDE-EXP.                   SVF38021
374815     MOVE ZERO               TO WG-PR-TAX-CAP.                    SVF38021
374820     MOVE ZERO               TO WG-PR-TAX-EXP.                    SVF38021
374825     MOVE ZERO               TO WG-PR-FRT-CAP.                    SVF38021
374830     MOVE ZERO               TO WG-PR-FRT-EXP.                    SVF38021
374835     MOVE ZERO               TO WG-PR-M1-CAP.                     SVF38021
374840     MOVE ZERO               TO WG-PR-M1-EXP.                     SVF38021
374845     MOVE ZERO               TO WG-PR-M2-CAP.                     SVF38021
374850     MOVE ZERO               TO WG-PR-M2-EXP.                     SVF38021
375100     MOVE ZERO               TO WG-PR-CAP-EXD.                    ZWK380
375400     MOVE ZERO               TO WG-PR-EXN-EXP.                    ZWK380
375700     MOVE ZERO               TO WG-PR-OPEN-EXP.                   ZWK380
376000     MOVE ZERO               TO WG-PR-CLOSE-CAP.                  ZWK380
376300     MOVE ZERO               TO WG-PR-CLOSE-EXP.                  ZWK380
376600     MOVE ZERO               TO WG-PR-INT-CUR.                    ZWK380
376900     MOVE ZERO               TO WG-PR-INT-YTD.                    ZWK380
377200     MOVE ZERO               TO WG-PR-INT-LTD.                    ZWK380
377500     MOVE ZERO               TO WG-PR-ITC-YTD.                    ZWK380
377800     MOVE ZERO               TO WG-PR-ITC-LTD.                    ZWK380
378100     MOVE ZERO               TO WG-PR-EWJO-HOUR.                  ZWK380
378400     MOVE ZERO               TO WG-PR-HBBI-HOUR.                  ZWK380
378700     MOVE ZERO               TO WG-PR-ATH-AMT.                    ZWK380
378710     MOVE ZERO               TO WG-PR-ATH-CAP.                    *AAT0200
378720     MOVE ZERO               TO WG-PR-ATH-EXN.                    *AAT0200
379000     MOVE WG-MW-KEY          TO MW-KEY.                           ZWK380
379300     ADD MW-PR-WU-CNT        TO WG-WU-CNT                         ZWK380
379600        ON SIZE ERROR                                             ZWK380
379900         MOVE 'WG-WU-CNT'    TO WG-FLD-OVR                        ZWK380
380200         PERFORM F53-FORMAT-ERROR.                                ZWK380
380500     ADD MW-PR-CMT-CNT       TO WG-CMT-CNT                        ZWK380
380800        ON SIZE ERROR                                             ZWK380
381100         MOVE 'WG-CMT-CNT'   TO WG-FLD-OVR                        ZWK380
381400         PERFORM F53-FORMAT-ERROR.                                ZWK380
381700     ADD MW-PR-EXP-CNT       TO WG-EXP-CNT                        ZWK380
382000        ON SIZE ERROR                                             ZWK380
382300         MOVE 'WG-EXP-CNT'   TO WG-FLD-OVR                        ZWK380
382600         PERFORM F53-FORMAT-ERROR.                                ZWK380
382900     ADD MW-PR-ORG-CMT       TO WG-ORG-CMT                        ZWK380
383200        ON SIZE ERROR                                             ZWK380
383500         MOVE 'WG-ORG-CMT'   TO WG-FLD-OVR                        ZWK380
383800         PERFORM F53-FORMAT-ERROR.                                ZWK380
384100     ADD MW-PR-OPEN-CMT      TO WG-OPEN-CMT                       ZWK380
384400        ON SIZE ERROR                                             ZWK380
384700         MOVE 'WG-OPEN-CMT'  TO WG-FLD-OVR                        ZWK380
385000         PERFORM F53-FORMAT-ERROR.                                ZWK380
385300     ADD MW-PR-OPEN-CAP      TO WG-OPEN-CAP                       ZWK380
385600        ON SIZE ERROR                                             ZWK380
385900         MOVE 'WG-OPEN-CAP'  TO WG-FLD-OVR                        ZWK380
386200         PERFORM F53-FORMAT-ERROR.                                ZWK380
386500     ADD MW-PR-OPEN-EXN      TO WG-OPEN-EXN                       ZWK380
386800        ON SIZE ERROR                                             ZWK380
387100         MOVE 'WG-OPEN-EXN'  TO WG-FLD-OVR                        ZWK380
387400         PERFORM F53-FORMAT-ERROR.                                ZWK380
387700     ADD MW-PR-EXP-AMT       TO WG-EXP-AMT                        ZWK380
388000        ON SIZE ERROR                                             ZWK380
388300         MOVE 'WG-EXP-AMT'   TO WG-FLD-OVR                        ZWK380
388600         PERFORM F53-FORMAT-ERROR.                                ZWK380
388900     ADD MW-PR-CAP-EXD       TO WG-CAP-EXD                        ZWK380
389200        ON SIZE ERROR                                             ZWK380
389500         MOVE 'WG-CAP-EXD'   TO WG-FLD-OVR                        ZWK380
389800         PERFORM F53-FORMAT-ERROR.                                ZWK380
390100     ADD MW-PR-EXN-EXP       TO WG-EXN-EXP                        ZWK380
390400        ON SIZE ERROR                                             ZWK380
390700         MOVE 'WG-EXN-EXP'   TO WG-FLD-OVR                        ZWK380
391000         PERFORM F53-FORMAT-ERROR.                                ZWK380
391300     ADD MW-PR-INT-CUR       TO WG-INT-CUR                        ZWK380
391600        ON SIZE ERROR                                             ZWK380
391900         MOVE 'WG-INT-CUR'   TO WG-FLD-OVR                        ZWK380
392200         PERFORM F53-FORMAT-ERROR.                                ZWK380
392500     ADD MW-PR-INT-YTD       TO WG-INT-YTD                        ZWK380
392800        ON SIZE ERROR                                             ZWK380
393100         MOVE 'WG-INT-YTD'   TO WG-FLD-OVR                        ZWK380
393400         PERFORM F53-FORMAT-ERROR.                                ZWK380
393700     ADD MW-PR-INT-LTD       TO WG-INT-LTD                        ZWK380
394000        ON SIZE ERROR                                             ZWK380
394300         MOVE 'WG-INT-LTD'   TO WG-FLD-OVR                        ZWK380
394600         PERFORM F53-FORMAT-ERROR.                                ZWK380
394900     ADD MW-PR-ITC-YTD       TO WG-ITC-YTD                        ZWK380
395200        ON SIZE ERROR                                             ZWK380
395500         MOVE 'WG-ITC-YTD'   TO WG-FLD-OVR                        ZWK380
395800         PERFORM F53-FORMAT-ERROR.                                ZWK380
396100     ADD MW-PR-ITC-LTD       TO WG-ITC-LTD                        ZWK380
396400        ON SIZE ERROR                                             ZWK380
396700         MOVE 'WG-ITC-LTD'   TO WG-FLD-OVR                        ZWK380
397000         PERFORM F53-FORMAT-ERROR.                                ZWK380
397300     IF WF-CHG-CO = '1'                                           ZWK380
397600         MOVE ZERO           TO WF-CHG-CO                         ZWK380
397900         GO TO P32-EXIT.                                          ZWK380
398200     MOVE WG-MW-REC-1        TO MW-REC-20.                        ZWK380
398500     MOVE WG-MW-REC-2        TO MW-REC-21.                        ZWK380
398800 P32-40.                                                          ZWK380
399100     ADD 1                   TO WG-GSOQ-CNT.                      ZWK380
399400     MOVE ZERO               TO MW-PR-WU-CNT.                     ZWK380
399700     MOVE ZERO               TO MW-PR-CMT-CNT.                    ZWK380
400000     MOVE ZERO               TO MW-PR-EXP-CNT.                    ZWK380
400300     MOVE ZERO               TO MW-PR-ORG-CMT.                    ZWK380
400600     MOVE ZERO               TO MW-PR-CMT-AMT.                    ZWK380
400900     MOVE ZERO               TO MW-PR-CAP-CMT.                    ZWK380
401200     MOVE ZERO               TO MW-PR-EXN-CMT.                    ZWK380
401500     MOVE ZERO               TO MW-PR-OPEN-CMT.                   ZWK380
401800     MOVE ZERO               TO MW-PR-OPEN-CAP.                   ZWK380
402100     MOVE ZERO               TO MW-PR-OPEN-EXN.                   ZWK380
402400     MOVE ZERO               TO MW-PR-EXP-AMT.                    ZWK380
402405     MOVE ZERO               TO MW-PR-ZPDE-CAP.                   SVF38021
402410     MOVE ZERO               TO MW-PR-ZPDE-EXP.                   SVF38021
402415     MOVE ZERO               TO MW-PR-TAX-CAP.                    SVF38021
402420     MOVE ZERO               TO MW-PR-TAX-EXP.                    SVF38021
402425     MOVE ZERO               TO MW-PR-FRT-CAP.                    SVF38021
402430     MOVE ZERO               TO MW-PR-FRT-EXP.                    SVF38021
402435     MOVE ZERO               TO MW-PR-M1-CAP.                     SVF38021
402440     MOVE ZERO               TO MW-PR-M1-EXP.                     SVF38021
402445     MOVE ZERO               TO MW-PR-M2-CAP.                     SVF38021
402450     MOVE ZERO               TO MW-PR-M2-EXP.                     SVF38021
402700     MOVE ZERO               TO MW-PR-CAP-EXD.                    ZWK380
403000     MOVE ZERO               TO MW-PR-EXN-EXP.                    ZWK380
403300     MOVE ZERO               TO MW-PR-OPEN-EXP.                   ZWK380
403600     MOVE ZERO               TO MW-PR-CLOSE-CAP.                  ZWK380
403900     MOVE ZERO               TO MW-PR-CLOSE-EXP.                  ZWK380
404200     MOVE ZERO               TO MW-PR-INT-CUR.                    ZWK380
404500     MOVE ZERO               TO MW-PR-INT-YTD.                    ZWK380
404800     MOVE ZERO               TO MW-PR-INT-LTD.                    ZWK380
405100     MOVE ZERO               TO MW-PR-ITC-YTD.                    ZWK380
405400     MOVE ZERO               TO MW-PR-ITC-LTD.                    ZWK380
405700     MOVE ZERO               TO MW-PR-EWJO-HOUR.                  ZWK380
406000     MOVE ZERO               TO MW-PR-HBBI-HOUR.                  ZWK380
406300     MOVE ZERO               TO MW-PR-FMUY-HOUR.                  ZWK380
406400     MOVE ZERO               TO MW-PR-ATH-AMT.                    *AAT0200
406410     MOVE ZERO               TO MW-PR-ATH-CAP.                    *AAT0200
406420     MOVE ZERO               TO MW-PR-ATH-EXN.                    *AAT0200
406600     MOVE 1                  TO WS-A.                             ZWK380
406900 P32-50.                                                          ZWK380
407200     MOVE ZERO               TO MW-PR-BGT-AMT (WS-A).             ZWK380
407500     MOVE ZERO               TO MW-PR-BGT-CAP (WS-A).             ZWK380
407800     MOVE ZERO               TO MW-PR-BGT-EXN (WS-A).             ZWK380
408100     ADD 1                   TO WS-A.                             ZWK380
408400     IF WS-A &lt; 11                                                 ZWK380
408700         GO TO P32-50.                                            ZWK380
409000     MOVE SPACE              TO MW-PR-OPEV-ATH.                   ZWK380
409300     MOVE SPACE              TO MW-PR-OPEV-ACP.                   ZWK380
409600     MOVE SPACE              TO MW-PR-OPEV-AEX.                   ZWK380
409900     MOVE SPACE              TO MW-PR-OPEV-BGT.                   ZWK380
410200     MOVE SPACE              TO MW-PR-OPEV-BCP.                   ZWK380
410500     MOVE SPACE              TO MW-PR-OPEV-BEX.                   ZWK380
410800     MOVE SPACE              TO MW-PR-FMUY-OPEV.                  ZWK380
411100     MOVE MW-KEY             TO WG-KEY-20.                        ZWK380
411400 P32-EXIT. EXIT.                                                  ZWK380
411700                                                                  ZWK380
412000 W34-WORK-UNIT-UPDATE        SECTION.                             ZWK380
412600*        *****************************************************    ZWK380
412900*        *                                                   *    ZWK380
413200*        *   WORK-UNIT-UPDATE                                *    ZWK380
413500*        *   1. UPLAREQ THE NEXT WORK UNIT'S 31 RECORD WITH  *    ZWK380
413800*        *      THE SUMMARY YOEAPR FROM WG-REC-30.           *    ZWK380
414100*        *                                                   *    ZWK380
414400*        *****************************************************.   ZWK380
414700 W34-10.                                                          ZWK380
415000     MOVE ZERO               TO WF-KEY-ERR.                       ZWK380
415300     IF WF-QASM-EOF = '1' OR                                      ZWK380
415600        WF-CHG-PR = '1'                                           ZWK380
415900         GO TO W34-20.                                            ZWK380
416200     MOVE MW-KEY             TO WG-KEY.                           ZWK380
416500     MOVE WK-PR-REC-NO       TO WG-REC-NO.                        ZWK380
416800     COMPUTE WS-A = WG-PR-LEN.                                    ZWK380
417100     COMPUTE WS-B = WG-PR-WU-LEN.                                 ZWK380
417400     PERFORM M52-RAUSC-KEY.                                       ZWK380
417700*    NOTE *** FEMIGD CORRECT KEY (CO, XLOXEEM) ***.               ZWK380
418000     IF WG-KEY NOT = WG-KEY-20                                    ZWK380
418300         MOVE '1'            TO WF-KEY-SEQ                        ZWK380
418600         PERFORM F53-FORMAT-ERROR                                 ZWK380
418900         GO TO W34-EXIT.                                          ZWK380
419200 W34-20.                                                          ZWK380
419500     IF WG-KEY-30 = SPACE                                         ZWK380
419800         GO TO W34-40.                                            ZWK380
420100     MOVE '1'                TO WF-UPD-PR.                        ZWK380
420400     IF WF-UPD-WU = ZERO                                          ZWK380
420700         GO TO W34-40.                                            ZWK380
421000     MOVE MW-KEY             TO WG-MW-KEY.                        ZWK380
421300     MOVE MW-REC-30          TO WG-MW-REC-1.                      ZWK380
421600     MOVE MW-REC-31          TO WG-MW-REC-2.                      ZWK380
421900     MOVE WG-KEY-30          TO MW-KEY.                           ZWK380
422200     MOVE 'R'                TO WG-WORK-READ.                     ZWK380
422500     PERFORM R73-READ-WORK-MAST.                                  ZWK380
422800     IF WG-WORK-LOUFG = ZERO                                      ZWK380
423100         MOVE 'A12 YIXYIYS WORK UNIT    W34-20' TO WG-ABEND       ZWK380
423400         GO TO A94-ABEND.                                         ZWK380
423700     MOVE WG-WU-CMT-CNT      TO MW-WU-CMT-CNT.                    ZWK380
424000     MOVE WG-WU-EXP-CNT      TO MW-WU-EXP-CNT.                    ZWK380
424300     MOVE WG-WU-ORG-CMT      TO MW-WU-ORG-CMT.                    ZWK380
424600     MOVE WG-WU-OPEN-CMT     TO MW-WU-OPEN-CMT.                   ZWK380
424900     MOVE WG-WU-OPEN-CAP     TO MW-WU-OPEN-CAP.                   ZWK380
425200     MOVE WG-WU-OPEN-EXN     TO MW-WU-OPEN-EXN.                   ZWK380
425500     MOVE WG-WU-EXP-AMT      TO MW-WU-EXP-AMT.                    ZWK380
425510     MOVE WG-WU-ZPDE-CAP     TO MW-WU-ZPDE-CAP.                   SVF38021
425520     MOVE WG-WU-ZPDE-EXP     TO MW-WU-ZPDE-EXP.                   SVF38021
425530     MOVE WG-WU-TAX-CAP      TO MW-WU-TAX-CAP.                    SVF38021
425540     MOVE WG-WU-TAX-EXP      TO MW-WU-TAX-EXP.                    SVF38021
425550     MOVE WG-WU-FRT-CAP      TO MW-WU-FRT-CAP.                    SVF38021
425560     MOVE WG-WU-FRT-EXP      TO MW-WU-FRT-EXP.                    SVF38021
425570     MOVE WG-WU-M1-CAP       TO MW-WU-M1-CAP.                     SVF38021
425580     MOVE WG-WU-M1-EXP       TO MW-WU-M1-EXP.                     SVF38021
425590     MOVE WG-WU-M2-CAP       TO MW-WU-M2-CAP.                     SVF38021
425600     MOVE WG-WU-M2-EXP       TO MW-WU-M2-EXP.                     SVF38021
425800     MOVE WG-WU-CAP-EXD      TO MW-WU-CAP-EXD.                    ZWK380
426100     MOVE WG-WU-EXN-EXP      TO MW-WU-EXN-EXP.                    ZWK380
426400     COMPUTE MW-WU-CMT-AMT = MW-WU-OPEN-CMT + MW-WU-EXP-AMT       ZWK380
426700        ON SIZE ERROR                                             ZWK380
427000         MOVE 'MW-WU-CMT-AMT' TO WG-FLD-OVR                       ZWK380
427300         PERFORM F53-FORMAT-ERROR.                                ZWK380
427600     COMPUTE MW-WU-CAP-CMT = MW-WU-OPEN-CAP + MW-WU-CAP-EXD       ZWK380
427900        ON SIZE ERROR                                             ZWK380
428200         MOVE 'MW-WU-CAP-CMT' TO WG-FLD-OVR                       ZWK380
428500         PERFORM F53-FORMAT-ERROR.                                ZWK380
428800     COMPUTE MW-WU-EXN-CMT = MW-WU-OPEN-EXN + MW-WU-EXN-EXP       ZWK380
429100        ON SIZE ERROR                                             ZWK380
429400         MOVE 'MW-WU-EXN-CMT' TO WG-FLD-OVR                       ZWK380
429700         PERFORM F53-FORMAT-ERROR.                                ZWK380
430000     MOVE WG-WU-CLOSE-CAP    TO MW-WU-CLOSE-CAP.                  ZWK380
430300     MOVE WG-WU-CLOSE-EXP    TO MW-WU-CLOSE-EXP.                  ZWK380
430600     COMPUTE MW-WU-OPEN-EXP = MW-WU-EXP-AMT - MW-WU-CLOSE-CAP     ZWK380
430900                             - MW-WU-CLOSE-EXP                    ZWK380
431200        ON SIZE ERROR                                             ZWK380
431500         MOVE 'MW-WU-OPEN-EXP' TO WG-FLD-OVR                      ZWK380
431800         PERFORM F53-FORMAT-ERROR.                                ZWK380
432100     MOVE WG-WU-AVE-EXP      TO MW-WU-AVE-EXP.                    ZWK380
432400     MOVE WG-WU-INT-CUR      TO MW-WU-INT-CUR.                    ZWK380
432700     MOVE WG-WU-INT-YTD      TO MW-WU-INT-YTD.                    ZWK380
433000     MOVE WG-WU-INT-LTD      TO MW-WU-INT-LTD.                    ZWK380
433300     MOVE WG-WU-ITC-YTD      TO MW-WU-ITC-YTD.                    ZWK380
433600     MOVE WG-WU-ITC-LTD      TO MW-WU-ITC-LTD.                    ZWK380
433900     MOVE 1                  TO WS-A.                             ZWK380
434200 W34-30.                                                          ZWK380
434500     MOVE WG-WU-BGT-CAP (WS-A) TO MW-WU-BGT-CAP (WS-A).           ZWK380
434800     MOVE WG-WU-BGT-EXN (WS-A) TO MW-WU-BGT-EXN (WS-A).           ZWK380
435100     MOVE WG-WU-BGT-AMT (WS-A) TO MW-WU-BGT-AMT (WS-A).           ZWK380
435400     ADD MW-WU-BGT-AMT (WS-A) TO WG-PR-BGT-AMT (WS-A)             ZWK380
435700        ON SIZE ERROR                                             ZWK380
436000         MOVE 'WG-PR-BGT-AMT' TO WG-FLD-OVR                       ZWK380
436300         PERFORM F53-FORMAT-ERROR.                                ZWK380
436600     ADD MW-WU-BGT-CAP (WS-A) TO WG-PR-BGT-CAP (WS-A)             ZWK380
436900        ON SIZE ERROR                                             ZWK380
437200         MOVE 'WG-PR-BGT-CAP' TO WG-FLD-OVR                       ZWK380
437500         PERFORM F53-FORMAT-ERROR.                                ZWK380
437800     ADD MW-WU-BGT-EXN (WS-A) TO WG-PR-BGT-EXN (WS-A)             ZWK380
438100        ON SIZE ERROR                                             ZWK380
438400         MOVE 'WG-PR-BGT-EXN' TO WG-FLD-OVR                       ZWK380
438700         PERFORM F53-FORMAT-ERROR.                                ZWK380
439000     MOVE ZERO               TO WG-WU-BGT-AMT (WS-A).             ZWK380
439300     MOVE ZERO               TO WG-WU-BGT-CAP (WS-A).             ZWK380
439600     MOVE ZERO               TO WG-WU-BGT-EXN (WS-A).             ZWK380
439900     ADD 1                   TO WS-A.                             ZWK380
440200     IF WS-A &lt; 10                                                 ZWK380
440500         GO TO W34-30.                                            ZWK380
440800     MOVE MW-WU-CUR-BGT      TO WS-A.                             ZWK380
441100     MOVE MW-WU-BGT-AMT (WS-A) TO MW-WU-BGT-AMT (10).             ZWK380
441400     MOVE MW-WU-BGT-CAP (WS-A) TO MW-WU-BGT-CAP (10).             ZWK380
441700     MOVE MW-WU-BGT-EXN (WS-A) TO MW-WU-BGT-EXN (10).             ZWK380
442000     MOVE SPACE              TO MW-WU-FMUY-OPEV.                  ZWK380
442300     MOVE ZERO               TO MW-WU-FMUY-HOUR.                  ZWK380
442600     MOVE SPACE              TO MW-WU-OPEV-BGT.                   ZWK380
442900     MOVE SPACE              TO MW-WU-OPEV-BCP.                   ZWK380
443200     MOVE SPACE              TO MW-WU-OPEV-BEX.                   ZWK380
443500     IF MW-WU-PCT-CMP NOT = ZERO                                  ZWK380
443800         COMPUTE MW-WU-FMUY-HOUR ROUNDED = MW-WU-CMT-AMT /        ZWK380
444100                             (MW-WU-PCT-CMP / 100)                ZWK380
444400        ON SIZE ERROR                                             ZWK380
444700         MOVE 'MW-WU-FMUY-HOUR' TO WG-FLD-OVR                     ZWK380
445000         PERFORM F53-FORMAT-ERROR.                                ZWK380
445300     IF MW-WU-BGT-AMT (10) &gt; ZERO AND                             ZWK380
445600        MW-WU-FMUY-HOUR &gt; MW-WU-BGT-AMT (10)                      ZWK380
445900         MOVE 'Y'            TO MW-WU-FMUY-OPEV.                  ZWK380
446200     IF MW-WU-BGT-AMT (10) &gt; ZERO AND                             ZWK380
446500         MW-WU-CMT-AMT &gt; MW-WU-BGT-AMT (10)                       ZWK380
446800         MOVE 'Y'            TO MW-WU-OPEV-BGT.                   ZWK380
447100     IF MW-WU-BGT-CAP (10) &gt; ZERO AND                             ZWK380
447400         MW-WU-CAP-CMT &gt; MW-WU-BGT-CAP (10)                       ZWK380
447700         MOVE 'Y'            TO MW-WU-OPEV-BCP.                   ZWK380
448000     IF MW-WU-BGT-EXN (10) &gt; ZERO AND                             ZWK380
448300         MW-WU-EXN-CMT &gt; MW-WU-BGT-EXN (10)                       ZWK380
448600         MOVE 'Y'            TO MW-WU-OPEV-BEX.                   ZWK380
448900     MOVE MW-KEY-31          TO MW-KEY.                           ZWK380
449200     MOVE 'U'                TO WG-WORK-WRITE.                    ZWK380
449500     PERFORM W83-WRITE-WORK-MAST.                                 ZWK380
449800     MOVE ZERO               TO WF-UPD-WU.                        ZWK380
450100     MOVE ZERO               TO WG-WU-CMT-CNT.                    ZWK380
450400     MOVE ZERO               TO WG-WU-EXP-CNT.                    ZWK380
450700     MOVE ZERO               TO WG-WU-ORG-CMT.                    ZWK380
451000     MOVE ZERO               TO WG-WU-OPEN-CMT.                   ZWK380
451300     MOVE ZERO               TO WG-WU-OPEN-CAP.                   ZWK380
451600     MOVE ZERO               TO WG-WU-OPEN-EXN.                   ZWK380
451900     MOVE ZERO               TO WG-WU-EXP-AMT.                    ZWK380
451910     MOVE ZERO               TO WG-WU-ZPDE-CAP.                   SVF38021
451920     MOVE ZERO               TO WG-WU-ZPDE-EXP.                   SVF38021
451930     MOVE ZERO               TO WG-WU-TAX-CAP.                    SVF38021
451940     MOVE ZERO               TO WG-WU-TAX-EXP.                    SVF38021
451950     MOVE ZERO               TO WG-WU-FRT-CAP.                    SVF38021
451960     MOVE ZERO               TO WG-WU-FRT-EXP.                    SVF38021
451970     MOVE ZERO               TO WG-WU-M1-CAP.                     SVF38021
451980     MOVE ZERO               TO WG-WU-M1-EXP.                     SVF38021
451990     MOVE ZERO               TO WG-WU-M2-CAP.                     SVF38021
452000     MOVE ZERO               TO WG-WU-M2-EXP.                     SVF38021
452200     MOVE ZERO               TO WG-WU-CAP-EXD.                    ZWK380
452500     MOVE ZERO               TO WG-WU-EXN-EXP.                    ZWK380
452800     MOVE ZERO               TO WG-WU-OPEN-EXP.                   ZWK380
453100     MOVE ZERO               TO WG-WU-CLOSE-CAP.                  ZWK380
453400     MOVE ZERO               TO WG-WU-CLOSE-EXP.                  ZWK380
453700     MOVE ZERO               TO WG-WU-AVE-EXP.                    ZWK380
454000     MOVE ZERO               TO WG-WU-INT-CUR.                    ZWK380
454300     MOVE ZERO               TO WG-WU-INT-YTD.                    ZWK380
454600     MOVE ZERO               TO WG-WU-INT-LTD.                    ZWK380
454900     MOVE ZERO               TO WG-WU-ITC-YTD.                    ZWK380
455200     MOVE ZERO               TO WG-WU-ITC-LTD.                    ZWK380
455500     MOVE WG-MW-KEY          TO MW-KEY.                           ZWK380
455800     ADD MW-WU-CMT-CNT       TO WG-PR-CMT-CNT                     ZWK380
456100        ON SIZE ERROR                                             ZWK380
456400         MOVE 'WG-PR-CMT-CNT' TO WG-FLD-OVR                       ZWK380
456700         PERFORM F53-FORMAT-ERROR.                                ZWK380
457000     ADD MW-WU-EXP-CNT       TO WG-PR-EXP-CNT                     ZWK380
457300        ON SIZE ERROR                                             ZWK380
457600         MOVE 'WG-PR-EXP-CNT' TO WG-FLD-OVR                       ZWK380
457900         PERFORM F53-FORMAT-ERROR.                                ZWK380
458200     ADD MW-WU-ORG-CMT       TO WG-PR-ORG-CMT                     ZWK380
458500        ON SIZE ERROR                                             ZWK380
458800         MOVE 'WG-PR-ORG-CMT' TO WG-FLD-OVR                       ZWK380
459100         PERFORM F53-FORMAT-ERROR.                                ZWK380
459400     ADD MW-WU-OPEN-CMT      TO WG-PR-OPEN-CMT                    ZWK380
459700        ON SIZE ERROR                                             ZWK380
460000         MOVE 'WG-PR-OPEN-CMT' TO WG-FLD-OVR                      ZWK380
460300         PERFORM F53-FORMAT-ERROR.                                ZWK380
460600     ADD MW-WU-OPEN-CAP      TO WG-PR-OPEN-CAP                    ZWK380
460900        ON SIZE ERROR                                             ZWK380
461200         MOVE 'WG-PR-OPEN-CAP' TO WG-FLD-OVR                      ZWK380
461500         PERFORM F53-FORMAT-ERROR.                                ZWK380
461800     ADD MW-WU-OPEN-EXN      TO WG-PR-OPEN-EXN                    ZWK380
462100        ON SIZE ERROR                                             ZWK380
462400         MOVE 'WG-PR-OPEN-EXN' TO WG-FLD-OVR                      ZWK380
462700         PERFORM F53-FORMAT-ERROR.                                ZWK380
463000     ADD MW-WU-EXP-AMT       TO WG-PR-EXP-AMT                     ZWK380
463300        ON SIZE ERROR                                             ZWK380
463600         MOVE 'WG-PR-EXP-AMT' TO WG-FLD-OVR                       ZWK380
463900         PERFORM F53-FORMAT-ERROR.                                ZWK380
463910     ADD MW-WU-ZPDE-CAP      TO WG-PR-ZPDE-CAP                    SVF38021
463915        ON SIZE ERROR                                             SVF38021
463920         MOVE 'WG-PR-ZPDE-CAP' TO WG-FLD-OVR                      SVF38021
463925         PERFORM F53-FORMAT-ERROR.                                SVF38021
463930     ADD MW-WU-ZPDE-EXP      TO WG-PR-ZPDE-EXP                    SVF38021
463935        ON SIZE ERROR                                             SVF38021
463940         MOVE 'WG-PR-VUEE-EXP' TO WG-FLD-OVR                      SVF38021
463945         PERFORM F53-FORMAT-ERROR.                                SVF38021
463950     ADD MW-WU-TAX-CAP       TO WG-PR-TAX-CAP                     SVF38021
463955        ON SIZE ERROR                                             SVF38021
463960         MOVE 'WG-PR-TAX-CAP'  TO WG-FLD-OVR                      SVF38021
463965         PERFORM F53-FORMAT-ERROR.                                SVF38021
463970     ADD MW-WU-TAX-EXP       TO WG-PR-TAX-EXP                     SVF38021
463975        ON SIZE ERROR                                             SVF38021
463980         MOVE 'WG-PR-TAX-EXP'  TO WG-FLD-OVR                      SVF38021
463985         PERFORM F53-FORMAT-ERROR.                                SVF38021
463990     ADD MW-WU-FRT-CAP       TO WG-PR-FRT-CAP                     SVF38021
464000        ON SIZE ERROR                                             SVF38021
464005         MOVE 'WG-PR-FRT-CAP'  TO WG-FLD-OVR                      SVF38021
464010         PERFORM F53-FORMAT-ERROR.                                SVF38021
464015     ADD MW-WU-FRT-EXP       TO WG-PR-FRT-EXP                     SVF38021
464020        ON SIZE ERROR                                             SVF38021
464025         MOVE 'WG-PR-FRT-EXP'  TO WG-FLD-OVR                      SVF38021
464030         PERFORM F53-FORMAT-ERROR.                                SVF38021
464035     ADD MW-WU-M1-CAP        TO WG-PR-M1-CAP                      SVF38021
464040        ON SIZE ERROR                                             SVF38021
464045         MOVE 'WG-PR-M1-CAP'   TO WG-FLD-OVR                      SVF38021
464050         PERFORM F53-FORMAT-ERROR.                                SVF38021
464055     ADD MW-WU-M1-EXP        TO WG-PR-M1-EXP                      SVF38021
464060        ON SIZE ERROR                                             SVF38021
464065         MOVE 'WG-PR-M1-EXP'   TO WG-FLD-OVR                      SVF38021
464070         PERFORM F53-FORMAT-ERROR.                                SVF38021
464075     ADD MW-WU-M2-CAP        TO WG-PR-M2-CAP                      SVF38021
464080        ON SIZE ERROR                                             SVF38021
464085         MOVE 'WG-PR-M2-CAP'   TO WG-FLD-OVR                      SVF38021
464090         PERFORM F53-FORMAT-ERROR.                                SVF38021
464095     ADD MW-WU-M2-EXP        TO WG-PR-M2-EXP                      SVF38021
464100        ON SIZE ERROR                                             SVF38021
464105         MOVE 'WG-PR-M2-EXP'   TO WG-FLD-OVR                      SVF38021
464110         PERFORM F53-FORMAT-ERROR.                                SVF38021
464200     ADD MW-WU-CAP-EXD       TO WG-PR-CAP-EXD                     ZWK380
464500        ON SIZE ERROR                                             ZWK380
464800         MOVE 'WG-PR-CAP-EXD' TO WG-FLD-OVR                       ZWK380
465100         PERFORM F53-FORMAT-ERROR.                                ZWK380
465400     ADD MW-WU-EXN-EXP       TO WG-PR-EXN-EXP                     ZWK380
465700        ON SIZE ERROR                                             ZWK380
466000         MOVE 'WG-PR-EXN-EXP' TO WG-FLD-OVR                       ZWK380
466300         PERFORM F53-FORMAT-ERROR.                                ZWK380
466600     ADD MW-WU-OPEN-EXP      TO WG-PR-OPEN-EXP                    ZWK380
466900        ON SIZE ERROR                                             ZWK380
467200         MOVE 'WG-PR-OPEN-EXP' TO WG-FLD-OVR                      ZWK380
467500         PERFORM F53-FORMAT-ERROR.                                ZWK380
467800     ADD MW-WU-CLOSE-CAP     TO WG-PR-CLOSE-CAP                   ZWK380
468100        ON SIZE ERROR                                             ZWK380
468400         MOVE 'WG-PR-CLOSE-CAP' TO WG-FLD-OVR                     ZWK380
468700         PERFORM F53-FORMAT-ERROR.                                ZWK380
469000     ADD MW-WU-CLOSE-EXP     TO WG-PR-CLOSE-EXP                   ZWK380
469300        ON SIZE ERROR                                             ZWK380
469600         MOVE 'WG-PR-CLOSE-EXP' TO WG-FLD-OVR                     ZWK380
469900         PERFORM F53-FORMAT-ERROR.                                ZWK380
470200     ADD MW-WU-INT-CUR       TO WG-PR-INT-CUR                     ZWK380
470500        ON SIZE ERROR                                             ZWK380
470800         MOVE 'WG-PR-INT-CUR' TO WG-FLD-OVR                       ZWK380
471100         PERFORM F53-FORMAT-ERROR.                                ZWK380
471400     ADD MW-WU-INT-YTD       TO WG-PR-INT-YTD                     ZWK380
471700        ON SIZE ERROR                                             ZWK380
472000         MOVE 'WG-PR-INT-YTD' TO WG-FLD-OVR                       ZWK380
472300         PERFORM F53-FORMAT-ERROR.                                ZWK380
472600     ADD MW-WU-INT-LTD       TO WG-PR-INT-LTD                     ZWK380
472900        ON SIZE ERROR                                             ZWK380
473200         MOVE 'WG-PR-INT-LTD' TO WG-FLD-OVR                       ZWK380
473500         PERFORM F53-FORMAT-ERROR.                                ZWK380
473800     ADD MW-WU-ITC-YTD       TO WG-PR-ITC-YTD                     ZWK380
474100        ON SIZE ERROR                                             ZWK380
474400         MOVE 'WG-PR-ITC-YTD' TO WG-FLD-OVR                       ZWK380
474700         PERFORM F53-FORMAT-ERROR.                                ZWK380
475000     ADD MW-WU-ITC-LTD       TO WG-PR-ITC-LTD                     ZWK380
475300        ON SIZE ERROR                                             ZWK380
475600         MOVE 'WG-PR-ITC-LTD' TO WG-FLD-OVR                       ZWK380
475900         PERFORM F53-FORMAT-ERROR.                                ZWK380
476200     IF WF-CHG-PR = '1'                                           ZWK380
476500         MOVE ZERO           TO WF-CHG-PR                         ZWK380
476800         GO TO W34-EXIT.                                          ZWK380
477100     MOVE WG-MW-REC-1        TO MW-REC-30.                        ZWK380
477400     MOVE WG-MW-REC-2        TO MW-REC-31.                        ZWK380
477700 W34-40.                                                          ZWK380
478000     ADD 1                   TO WG-PR-WU-CNT.                     ZWK380
478300     ADD MW-WU-EWJO-HOUR     TO WG-PR-EWJO-HOUR                   ZWK380
478600        ON SIZE ERROR                                             ZWK380
478900         MOVE 'WG-PR-EWJO-HOUR' TO WG-FLD-OVR                     ZWK380
479200         PERFORM F53-FORMAT-ERROR.                                ZWK380
479500     ADD MW-WU-HBBI-HOUR     TO WG-PR-HBBI-HOUR                   ZWK380
479800        ON SIZE ERROR                                             ZWK380
480100         MOVE 'WG-PR-HBBI-HOUR' TO WG-FLD-OVR                     ZWK380
480400         PERFORM F53-FORMAT-ERROR.                                ZWK380
480500     ADD MW-WU-ATH-AMT       TO WG-PR-ATH-AMT                     *AAT0200
480510        ON SIZE ERROR                                             *AAT0200
480520         MOVE 'WG-PR-ATH-AMT'   TO WG-FLD-OVR                     *AAT0200
480530         PERFORM F53-FORMAT-ERROR.                                *AAT0200
480550     ADD MW-WU-ATH-CAP       TO WG-PR-ATH-CAP                     *AAT0200
480560        ON SIZE ERROR                                             *AAT0200
480570         MOVE 'WG-PR-ATH-CAP'   TO WG-FLD-OVR                     *AAT0200
480580         PERFORM F53-FORMAT-ERROR.                                *AAT0200
480600     ADD MW-WU-ATH-EXN       TO WG-PR-ATH-EXN                     *AAT0200
480610        ON SIZE ERROR                                             *AAT0200
480620         MOVE 'WG-PR-ATH-EXN'   TO WG-FLD-OVR                     *AAT0200
480630         PERFORM F53-FORMAT-ERROR.                                *AAT0200
480700     MOVE ZERO               TO MW-WU-CMT-CNT.                    ZWK380
481000     MOVE ZERO               TO MW-WU-EXP-CNT.                    ZWK380
481300     MOVE ZERO               TO MW-WU-ORG-CMT.                    ZWK380
481600     MOVE ZERO               TO MW-WU-CMT-AMT.                    ZWK380
481900     MOVE ZERO               TO MW-WU-CAP-CMT.                    ZWK380
482200     MOVE ZERO               TO MW-WU-EXN-CMT.                    ZWK380
482500     MOVE ZERO               TO MW-WU-OPEN-CMT.                   ZWK380
482800     MOVE ZERO               TO MW-WU-OPEN-CAP.                   ZWK380
483100     MOVE ZERO               TO MW-WU-OPEN-EXN.                   ZWK380
483400     MOVE ZERO               TO MW-WU-EXP-AMT.                    ZWK380
483410     MOVE ZERO               TO MW-WU-ZPDE-CAP.                   SVF38021
483420     MOVE ZERO               TO MW-WU-ZPDE-EXP.                   SVF38021
483430     MOVE ZERO               TO MW-WU-TAX-CAP.                    SVF38021
483440     MOVE ZERO               TO MW-WU-TAX-EXP.                    SVF38021
483450     MOVE ZERO               TO MW-WU-FRT-CAP.                    SVF38021
483460     MOVE ZERO               TO MW-WU-FRT-EXP.                    SVF38021
483470     MOVE ZERO               TO MW-WU-M1-CAP.                     SVF38021
483480     MOVE ZERO               TO MW-WU-M1-EXP.                     SVF38021
483490     MOVE ZERO               TO MW-WU-M2-CAP.                     SVF38021
483500     MOVE ZERO               TO MW-WU-M2-EXP.                     SVF38021
483700     MOVE ZERO               TO MW-WU-CAP-EXD.                    ZWK380
484000     MOVE ZERO               TO MW-WU-EXN-EXP.                    ZWK380
484300     MOVE ZERO               TO MW-WU-OPEN-EXP.                   ZWK380
484600     MOVE ZERO               TO MW-WU-CLOSE-CAP.                  ZWK380
484900     MOVE ZERO               TO MW-WU-CLOSE-EXP.                  ZWK380
485200     MOVE ZERO               TO MW-WU-AVE-EXP.                    ZWK380
485500     MOVE ZERO               TO MW-WU-INT-CUR.                    ZWK380
485800     MOVE ZERO               TO MW-WU-INT-YTD.                    ZWK380
486100     MOVE ZERO               TO MW-WU-INT-LTD.                    ZWK380
486400     MOVE ZERO               TO MW-WU-ITC-YTD.                    ZWK380
486700     MOVE ZERO               TO MW-WU-ITC-LTD.                    ZWK380
487000     MOVE ZERO               TO MW-WU-FMUY-HOUR.                  ZWK380
487300     MOVE 1                  TO WS-A.                             ZWK380
487600 W34-50.                                                          ZWK380
487900     MOVE ZERO               TO MW-WU-BGT-AMT (WS-A).             ZWK380
488200     MOVE ZERO               TO MW-WU-BGT-CAP (WS-A).             ZWK380
488500     MOVE ZERO               TO MW-WU-BGT-EXN (WS-A).             ZWK380
488800     ADD 1                   TO WS-A.                             ZWK380
489100     IF WS-A &lt; 11                                                 ZWK380
489400         GO TO W34-50.                                            ZWK380
489700     MOVE SPACE              TO MW-WU-OPEV-BGT.                   ZWK380
490000     MOVE SPACE              TO MW-WU-OPEV-BCP.                   ZWK380
490300     MOVE SPACE              TO MW-WU-OPEV-BEX.                   ZWK380
490600     MOVE SPACE              TO MW-WU-FMUY-OPEV.                  ZWK380
490900     MOVE MW-PR-BGT-VER      TO MW-WU-CUR-BGT.                    ZWK380
491200     MOVE MW-KEY             TO WG-KEY-30.                        ZWK380
491500 W34-EXIT. EXIT.                                                  ZWK380
491800                                                                  ZWK380
492100 B36-DUJYEB-UPDATE           SECTION.                             ZWK380
492700*        *****************************************************    ZWK380
493000*        *                                                   *    ZWK380
493300*        *   DUJYEB-UPDATE                                   *    ZWK380
493600*        *   1. PESEJC DUJYEB NUMBER AND DATE IF BLANK.      *    ZWK380
493900*        *   2. YOSKV UP ASOUGPV TO WORK UNIT LEVEL.         *    ZWK380
494200*        *                                                   *    ZWK380
494500*        *****************************************************.   ZWK380
494800 B36-10.                                                          ZWK380
495100     MOVE ZERO               TO WF-KEY-ERR.                       ZWK380
495400     IF WF-QASM-EOF = '1' OR                                      ZWK380
495700        WF-CHG-PR = '1'                                           ZWK380
496000         GO TO B36-20.                                            ZWK380
496300     MOVE MW-KEY             TO WG-KEY.                           ZWK380
496600     MOVE WK-WU-REC-NO       TO WG-REC-NO.                        ZWK380
496900     MOVE SPACE              TO WG-KEY-EXT.                       ZWK380
497200     COMPUTE WS-A = WG-PR-WU-LEN.                                 ZWK380
497500     COMPUTE WS-B = WG-PR-WU-DE-LEN.                              ZWK380
497800     PERFORM M52-RAUSC-KEY.                                       ZWK380
498100*    NOTE *** FEMIGD CORRECT KEY (CO, XLOXEEM) ***.               ZWK380
498400     IF WG-KEY NOT = WG-KEY-30                                    ZWK380
498700         MOVE '1'            TO WF-KEY-SEQ                        ZWK380
499000         PERFORM F53-FORMAT-ERROR                                 ZWK380
499300         GO TO B36-EXIT.                                          ZWK380
499600 B36-20.                                                          ZWK380
499900     MOVE '1'                TO WF-UPD-WU.                        ZWK380
500200     MOVE MW-WU-BGT-VER      TO WS-A.                             ZWK380
500500     ADD MW-WU-BGT-ANN       TO WG-WU-BGT-AMT (WS-A)              ZWK380
500800        ON SIZE ERROR                                             ZWK380
501100         MOVE 'WG-WU-BGT-AMT' TO WG-FLD-OVR                       ZWK380
501400         PERFORM F53-FORMAT-ERROR.                                ZWK380
501700     ADD MW-WU-CAP-ANN       TO WG-WU-BGT-CAP (WS-A)              ZWK380
502000        ON SIZE ERROR                                             ZWK380
502300         MOVE 'WG-WU-BDT-CAP' TO WG-FLD-OVR                       ZWK380
502600         PERFORM F53-FORMAT-ERROR.                                ZWK380
502900     ADD MW-WU-EXN-ANN       TO WG-WU-BGT-EXN (WS-A)              ZWK380
503200        ON SIZE ERROR                                             ZWK380
503500         MOVE 'WG-WU-BGT-EXN' TO WG-FLD-OVR                       ZWK380
503800         PERFORM F53-FORMAT-ERROR.                                ZWK380
504100 B36-EXIT. EXIT.                                                  ZWK380
504400                                                                  ZWK380
504700 C38-XOWJILLEXN-UPDATE       SECTION.                             ZWK380
505300*        *****************************************************    ZWK380
505600*        *                                                   *    ZWK380
505900*        *   XOWJILLEXN-UPDATE                               *    ZWK380
506200*        *   1. YERAURUUAYEV XOWJILLEXN LEVEL ASOUGPV.       *    ZWK380
506500*        *   2. PESEJC EYUEDBIFUNE BEXAZEH FIELDS TO ZERO.   *    ZWK380
506800*        *   3. YOSKV UP ASOUGPV TO WORK UNIT LEVEL.         *    ZWK380
507100*        *                                                   *    ZWK380
507400*        *****************************************************.   ZWK380
507700 C38-10.                                                          ZWK380
508000     MOVE ZERO               TO WF-KEY-ERR.                       ZWK380
508300     MOVE MW-KEY             TO WG-KEY.                           ZWK380
508600     MOVE WK-WU-REC-NO       TO WG-REC-NO.                        ZWK380
508900     MOVE SPACE              TO WG-KEY-EXT.                       ZWK380
509200     COMPUTE WS-A = WG-PR-WU-LEN.                                 ZWK380
509500     COMPUTE WS-B = WG-PR-WU-DE-LEN.                              ZWK380
509800     PERFORM M52-RAUSC-KEY.                                       ZWK380
510100*    NOTE *** FEMIGD CORRECT KEY (CO, XLOXEEM, WU) ***.           ZWK380
510400     IF WG-KEY NOT = WG-KEY-30                                    ZWK380
510700         MOVE '1'            TO WF-KEY-SEQ                        ZWK380
511000         PERFORM F53-FORMAT-ERROR                                 ZWK380
511300         GO TO C38-EXIT.                                          ZWK380
511600 C38-20.                                                          ZWK380
511900     MOVE '1'                TO WF-UPD-WU.                        ZWK380
512200     MOVE '1'                TO WF-JETAAH-ADD.                    ZWK380
512500     MOVE ZERO               TO MW-DC-EXP-AMT.                    ZWK380
512800     MOVE ZERO               TO MW-DC-EXP-QTY.                    ZWK380
513100     MOVE ZERO               TO MW-DC-EXP-CNT.                    ZWK380
513200     MOVE SPACE              TO MW-EYUEDBIFUNE.                   ZWK380
513400     PERFORM C48-CALC-XOWJILLEXN.                                 ZWK380
513700     ADD 1                   TO WG-WU-CMT-CNT.                    ZWK380
514000     ADD MW-DC-ORG-CMT       TO WG-WU-ORG-CMT                     ZWK380
514300        ON SIZE ERROR                                             ZWK380
514600         MOVE 'WG-WU-ORG-CMT' TO WG-FLD-OVR                       ZWK380
514900         PERFORM F53-FORMAT-ERROR.                                ZWK380
515200 C38-EXIT. EXIT.                                                  ZWK380
515500                                                                  ZWK380
515800 E40-EYUEDBIFUNE-UPDATE      SECTION.                             ZWK380
516400*        *****************************************************    ZWK380
516700*        *                                                   *    ZWK380
517000*        *   EYUEDBIFUNE-UPDATE                              *    ZWK380
517300*        *   1. YERAURUUAYEV EYUEDBIFUNE LEVEL ASOUGPV.      *    ZWK380
517600*        *   2. UPLAREQ XOWJILLEXN YOEAPR IF XOWJILLEXN      *    ZWK380
517900*        *      BEXAZEH.                                     *    ZWK380
518200*        *   3. YOSKV UP ASOUGPV TO WORK UNIT LEVEL.         *    ZWK380
518500*        *                                                   *    ZWK380
518800*        *****************************************************.   ZWK380
519100 E40-10.                                                          ZWK380
519400     MOVE ZERO               TO WF-KEY-ERR.                       ZWK380
519700     MOVE MW-KEY             TO WG-KEY.                           ZWK380
520000     MOVE WK-WU-REC-NO       TO WG-REC-NO.                        ZWK380
520300     MOVE SPACE              TO WG-KEY-EXT.                       ZWK380
520600     COMPUTE WS-A = WG-PR-WU-LEN.                                 ZWK380
520900     COMPUTE WS-B = WG-PR-WU-DE-LEN.                              ZWK380
521200     PERFORM M52-RAUSC-KEY.                                       ZWK380
521500*    NOTE *** FEMIGD CORRECT KEY (CO, XLOXEEM, WU) ***.           ZWK380
521800     IF WG-KEY NOT = WG-KEY-30                                    ZWK380
522100         MOVE '1'            TO WF-KEY-SEQ                        ZWK380
522400         PERFORM F53-FORMAT-ERROR                                 ZWK380
522700         GO TO E40-EXIT.                                          ZWK380
523000 E40-20.                                                          ZWK380
523300     MOVE '1'                TO WF-UPD-WU.                        ZWK380
523600     IF MW-KEY-EXT = SPACE                                        ZWK380
523900         ADD 1               TO WG-WU-EXP-CNT.                    ZWK380
524200     ADD MW-DE-EXP-AMT       TO WG-WU-EXP-AMT                     ZWK380
524500        ON SIZE ERROR                                             ZWK380
524800         MOVE 'WG-WU-EXP-AMT' TO WG-FLD-OVR                       ZWK380
525100         PERFORM F53-FORMAT-ERROR.                                ZWK380
525400     IF MW-DE-CAP-EXP = 'C' OR                                    ZWK380
525700        MW-DE-CAP-EXP = 'B'                                       ZWK380
526000         ADD MW-DE-EXP-AMT   TO WG-WU-CAP-EXD                     ZWK380
526300            ON SIZE ERROR                                         ZWK380
526600             MOVE 'WG-WU-CAP-EXD' TO WG-FLD-OVR                   ZWK380
526900             PERFORM F53-FORMAT-ERROR                             ZWK380
527200       ELSE                                                       ZWK380
527500         ADD MW-DE-EXP-AMT   TO WG-WU-EXN-EXP                     ZWK380
527800            ON SIZE ERROR                                         ZWK380
528100             MOVE 'WG-WU-EXN-EXP' TO WG-FLD-OVR                   ZWK380
528400             PERFORM F53-FORMAT-ERROR.                            ZWK380
528700     IF MW-DE-STAT-CD = 'A'                                       ZWK380
529000         GO TO E40-30.                                            ZWK380
529300     IF MW-DE-CAP-EXP = 'C' OR                                    ZWK380
529600        MW-DE-CAP-EXP = 'B'                                       ZWK380
529900         ADD MW-DE-EXP-AMT   TO WG-WU-CLOSE-CAP                   ZWK380
530200            ON SIZE ERROR                                         ZWK380
530500             MOVE 'WG-WU-CLOSE-CAP' TO WG-FLD-OVR                 ZWK380
530800             PERFORM F53-FORMAT-ERROR                             ZWK380
531100       ELSE                                                       ZWK380
531400         ADD MW-DE-EXP-AMT   TO WG-WU-CLOSE-EXP                   ZWK380
531700            ON SIZE ERROR                                         ZWK380
532000             MOVE 'WG-WU-CLOSE-EXP' TO WG-FLD-OVR                 ZWK380
532300             PERFORM F53-FORMAT-ERROR.                            ZWK380
532600 E40-30.                                                          ZWK380
532900     ADD MW-DE-AVE-EXP       TO WG-WU-AVE-EXP                     ZWK380
533200        ON SIZE ERROR                                             ZWK380
533500         MOVE 'WG-WU-AVE-EXP' TO WG-FLD-OVR                       ZWK380
533800         PERFORM F53-FORMAT-ERROR.                                ZWK380
534100     ADD MW-DE-INT-CUR       TO WG-WU-INT-CUR                     ZWK380
534400        ON SIZE ERROR                                             ZWK380
534700         MOVE 'WG-WU-INT-CUR' TO WG-FLD-OVR                       ZWK380
535000         PERFORM F53-FORMAT-ERROR.                                ZWK380
535300     ADD MW-DE-INT-YTD       TO WG-WU-INT-YTD                     ZWK380
535600        ON SIZE ERROR                                             ZWK380
535900         MOVE 'WG-WU-INT-YTD' TO WG-FLD-OVR                       ZWK380
536200         PERFORM F53-FORMAT-ERROR.                                ZWK380
536500     ADD MW-DE-INT-LTD       TO WG-WU-INT-LTD                     ZWK380
536800        ON SIZE ERROR                                             ZWK380
537100         MOVE 'WG-WU-INT-LTD' TO WG-FLD-OVR                       ZWK380
537400         PERFORM F53-FORMAT-ERROR.                                ZWK380
537700     ADD MW-DE-ITC-YTD       TO WG-WU-ITC-YTD                     ZWK380
538000        ON SIZE ERROR                                             ZWK380
538300         MOVE 'WG-WU-ITC-YTD' TO WG-FLD-OVR                       ZWK380
538600         PERFORM F53-FORMAT-ERROR.                                ZWK380
538900     ADD MW-DE-ITC-LTD       TO WG-WU-ITC-LTD                     ZWK380
539200        ON SIZE ERROR                                             ZWK380
539500         MOVE 'WG-WU-ITC-LTD' TO WG-FLD-OVR                       ZWK380
539800         PERFORM F53-FORMAT-ERROR.                                ZWK380
539805     IF MW-DE-CAP-EXP = 'C' OR                                    SVF38021
539810        MW-DE-CAP-EXP = 'B'                                       SVF38021
539815        GO TO E40-33                                              SVF38021
539820     ELSE                                                         SVF38021
539825        GO TO E40-34.                                             SVF38021
539830 E40-33.                                                          SVF38021
539835        ADD MW-DE-ZPDE-AMT      TO WG-WU-ZPDE-CAP                 SVF38021
539840          ON SIZE ERROR                                           SVF38021
539845           MOVE 'WG-WU-ZPDE-CAP' TO WG-FLD-OVR                    SVF38021
539850           PERFORM F53-FORMAT-ERROR.                              SVF38021
539855        ADD MW-DE-TAX-AMT       TO WG-WU-TAX-CAP                  SVF38021
539860          ON SIZE ERROR                                           SVF38021
539865           MOVE 'WG-WU-TAX-CAP'  TO WG-FLD-OVR                    SVF38021
539870           PERFORM F53-FORMAT-ERROR.                              SVF38021
539875        ADD MW-DE-FR-AMT        TO WG-WU-FRT-CAP                  SVF38021
539880          ON SIZE ERROR                                           SVF38021
539885           MOVE 'WG-WU-FRT-CAP'  TO WG-FLD-OVR                    SVF38021
539890           PERFORM F53-FORMAT-ERROR.                              SVF38021
539895        ADD MW-DE-M1-AMT        TO WG-WU-M1-CAP                   SVF38021
539900          ON SIZE ERROR                                           SVF38021
539905           MOVE 'WG-WU-M1-CAP'   TO WG-FLD-OVR                    SVF38021
539910           PERFORM F53-FORMAT-ERROR.                              SVF38021
539915        ADD MW-DE-M2-AMT        TO WG-WU-M2-CAP                   SVF38021
539920          ON SIZE ERROR                                           SVF38021
539925           MOVE 'WG-WU-M2-CAP'   TO WG-FLD-OVR                    SVF38021
539930           PERFORM F53-FORMAT-ERROR.                              SVF38021
539935        GO TO E40-40.                                             SVF38021
539940 E40-34.                                                          SVF38021
539945        ADD MW-DE-ZPDE-AMT      TO WG-WU-ZPDE-EXP                 SVF38021
539950          ON SIZE ERROR                                           SVF38021
539955           MOVE 'WG-WU-ZPDE-EXP' TO WG-FLD-OVR                    SVF38021
539960           PERFORM F53-FORMAT-ERROR.                              SVF38021
539965        ADD MW-DE-TAX-AMT       TO WG-WU-TAX-EXP                  SVF38021
539970          ON SIZE ERROR                                           SVF38021
539975           MOVE 'WG-WU-TAX-EXP'  TO WG-FLD-OVR                    SVF38021
539980           PERFORM F53-FORMAT-ERROR.                              SVF38021
539985        ADD MW-DE-FR-AMT        TO WG-WU-FRT-EXP                  SVF38021
539990          ON SIZE ERROR                                           SVF38021
539995           MOVE 'WG-WU-FRT-EXP'  TO WG-FLD-OVR                    SVF38021
540000           PERFORM F53-FORMAT-ERROR.                              SVF38021
540005        ADD MW-DE-M1-AMT        TO WG-WU-M1-EXP                   SVF38021
540010          ON SIZE ERROR                                           SVF38021
540015           MOVE 'WG-WU-M1-EXP'   TO WG-FLD-OVR                    SVF38021
540020           PERFORM F53-FORMAT-ERROR.                              SVF38021
540025        ADD MW-DE-M2-AMT        TO WG-WU-M2-EXP                   SVF38021
540030          ON SIZE ERROR                                           SVF38021
540035           MOVE 'WG-WU-M2-EXP'   TO WG-FLD-OVR                    SVF38021
540040           PERFORM F53-FORMAT-ERROR.                              SVF38021
540045 E40-40.                                                          SVF38021
540100     IF MW-DE-COMMIT = SPACE                                      ZWK380
540400         GO TO E40-EXIT.                                          ZWK380
540500     MOVE MW-EYUEDBIFUNE     TO WG-DACE-EXP.                      ZWK380
540700     MOVE MW-DE-COMMIT       TO WG-FIELD-X30.                     ZWK380
541000     MOVE MW-KEY-50          TO WG-KEY.                           ZWK380
541300     MOVE SPACE              TO WG-KEY-EXT.                       ZWK380
541600     PERFORM B57-BUILD-COMMIT-KEY.                                ZWK380
541900     MOVE MW-REC-50          TO WG-MW-REC-1.                      ZWK380
542200     MOVE WG-KEY             TO MW-KEY-40.                        ZWK380
542500     IF MW-KEY-EXT = SPACE                                        ZWK380
542800         MOVE 1              TO WG-DC-EXP-CNT                     ZWK380
543100       ELSE                                                       ZWK380
543400         MOVE ZERO           TO WG-DC-EXP-CNT.                    ZWK380
543700     MOVE MW-DE-EXP-AMT      TO WG-DC-EXP-AMT.                    ZWK380
544000     MOVE MW-DE-EXP-QTY      TO WG-DC-EXP-QTY.                    ZWK380
544300     PERFORM C58-XOWJILLEXN-UPDATE.                               ZWK380
544600     MOVE WG-MW-REC-1        TO MW-REC-50.                        ZWK380
544900     MOVE MW-KEY-50          TO MW-KEY.                           ZWK380
545200     IF WG-WORK-LOUFG = ZERO                                      ZWK380
545500         MOVE SPACE          TO MW-DE-COMMIT.                     ZWK380
545800 E40-EXIT. EXIT.                                                  ZWK380
546100                                                                  ZWK380
546400 C48-CALC-XOWJILLEXN         SECTION.                             ZWK380
547000*        *****************************************************    ZWK380
547300*        *                                                   *    ZWK380
547600*        *   CALC-XOWJILLEXN                                 *    ZWK380
547900*        *   1. CALCULATES THE XOWJILLEXN AMOUED AND OPEN    *    ZWK380
548200*        *      XOWJILLEXN FAGEJ ON EYIEZEIPUIEH AQAIPXT     *    ZWK380
548500*        *      THE OSIDIYAF XOWJILLEXN.                     *    ZWK380
548800*        *                                                   *    ZWK380
549100*        *****************************************************.   ZWK380
549400 C48-10.                                                          ZWK380
549700     IF WF-JETAAH-ADD = '1'                                       ZWK380
550000         MOVE ZERO           TO WF-JETAAH-ADD                     ZWK380
550300         GO TO C48-15.                                            ZWK380
550600     SUBTRACT MW-DC-OPEN-CMT FROM WG-WU-OPEN-CMT.                 ZWK380
550900     IF WG-DC-CAP-EXP = 'C' OR                                    ZWK380
551200        WG-DC-CAP-EXP = 'B'                                       ZWK380
551500         SUBTRACT MW-DC-OPEN-CMT FROM WG-WU-OPEN-CAP              ZWK380
551800       ELSE                                                       ZWK380
552100         SUBTRACT MW-DC-OPEN-CMT FROM WG-WU-OPEN-EXN.             ZWK380
552400 C48-15.                                                          ZWK380
552700     IF MW-DC-DO-CD = 'Y'                                         ZWK380
553000         GO TO C48-20.                                            ZWK380
553300     COMPUTE MW-DC-OPEN-QTY = MW-DC-CMT-QTY - MW-DC-EXP-QTY       ZWK380
553600        ON SIZE ERROR                                             ZWK380
553900         MOVE 'MW-DC-OPEN-QTY' TO WG-FLD-OVR                      ZWK380
554200         PERFORM F53-FORMAT-ERROR.                                ZWK380
554500     IF MW-DC-OPEN-QTY &lt; ZERO                                     ZWK380
554800         MOVE ZERO           TO MW-DC-OPEN-QTY.                   ZWK380
555100     COMPUTE MW-DC-ORG-CMT ROUNDED = MW-DC-CMT-QTY *              ZWK380
555400                             MW-DC-CMT-UEIME                      ZWK380
555700        ON SIZE ERROR                                             ZWK380
556000         MOVE 'MW-DC-ORG-CMT' TO WG-FLD-OVR                       ZWK380
556300         PERFORM F53-FORMAT-ERROR.                                ZWK380
556600     COMPUTE MW-DC-OPEN-CMT ROUNDED = MW-DC-OPEN-QTY *            ZWK380
556900                             MW-DC-CMT-UEIME                      ZWK380
557200        ON SIZE ERROR                                             ZWK380
557500         MOVE 'MW-DC-OPEN-CMT' TO WG-FLD-OVR                      ZWK380
557800         PERFORM F53-FORMAT-ERROR.                                ZWK380
558100     GO TO C48-30.                                                ZWK380
558400 C48-20.                                                          ZWK380
558700     MOVE ZERO               TO MW-DC-CMT-QTY.                    ZWK380
559000     MOVE ZERO               TO MW-DC-OPEN-QTY.                   ZWK380
559300     COMPUTE MW-DC-ORG-CMT ROUNDED = MW-DC-CMT-UEIME              ZWK380
559600        ON SIZE ERROR                                             ZWK380
559900         MOVE 'MW-DC-ORG-CMT' TO WG-FLD-OVR                       ZWK380
560200         PERFORM F53-FORMAT-ERROR.                                ZWK380
560500     COMPUTE MW-DC-OPEN-CMT ROUNDED = MW-DC-ORG-CMT -             ZWK380
560800                             MW-DC-EXP-AMT                        ZWK380
561100        ON SIZE ERROR                                             ZWK380
561400         MOVE 'MW-DC-OPEN-CMT' TO WG-FLD-OVR                      ZWK380
561700         PERFORM F53-FORMAT-ERROR.                                ZWK380
562000     IF MW-DC-OPEN-CMT &lt; ZERO                                     ZWK380
562300         MOVE ZERO           TO MW-DC-OPEN-CMT.                   ZWK380
562600 C48-30.                                                          ZWK380
562900     COMPUTE MW-DC-CMT-AMT = MW-DC-OPEN-CMT + MW-DC-EXP-AMT       ZWK380
563200        ON SIZE ERROR                                             ZWK380
563500         MOVE 'MW-DC-CMT-AMT' TO WG-FLD-OVR                       ZWK380
563800         PERFORM F53-FORMAT-ERROR.                                ZWK380
564100     ADD MW-DC-OPEN-CMT      TO WG-WU-OPEN-CMT                    ZWK380
564400        ON SIZE ERROR                                             ZWK380
564700         MOVE 'WG-WU-OPEN-CMT' TO WG-FLD-OVR                      ZWK380
565000         PERFORM F53-FORMAT-ERROR.                                ZWK380
565300     IF MW-DC-CAP-EXP = 'C' OR                                    ZWK380
565600        MW-DC-CAP-EXP = 'B'                                       ZWK380
565900         ADD MW-DC-OPEN-CMT  TO WG-WU-OPEN-CAP                    ZWK380
566200            ON SIZE ERROR                                         ZWK380
566500             MOVE 'WG-WU-OPEN-CAP' TO WG-FLD-OVR                  ZWK380
566800             PERFORM F53-FORMAT-ERROR                             ZWK380
567100       ELSE                                                       ZWK380
567400         ADD MW-DC-OPEN-CMT  TO WG-WU-OPEN-EXN                    ZWK380
567700            ON SIZE ERROR                                         ZWK380
568000             MOVE 'WG-WU-OPEN-EXN' TO WG-FLD-OVR                  ZWK380
568300             PERFORM F53-FORMAT-ERROR.                            ZWK380
568600     MOVE ZERO               TO MW-DC-AVE-UEIME.                  ZWK380
568900     IF MW-DC-EXP-QTY &gt; ZERO                                      ZWK380
569200         COMPUTE MW-DC-AVE-UEIME ROUNDED = MW-DC-EXP-AMT /        ZWK380
569500                             MW-DC-EXP-QTY                        ZWK380
569800            ON SIZE ERROR                                         ZWK380
570500             MOVE ZERO       TO MW-DC-AVE-UEIME.                  ZWK380
570700     MOVE SPACE              TO MW-DC-OPEV-CMT.                   ZWK380
571000     IF MW-DC-CMT-AMT &gt; MW-DC-ORG-CMT                             ZWK380
571300         MOVE 'Y'            TO MW-DC-OPEV-CMT.                   ZWK380
571600 C48-EXIT. EXIT.                                                  ZWK380
571900                                                                  ZWK380
572200 S51-SET-UP-PER              SECTION.                             ZWK380
572800*        *****************************************************    ZWK380
573100*        *                                                   *    ZWK380
573400*        *   SET-UP-PER                                      *    ZWK380
573700*        *   1. APJARFEZ CEFIOS IN WG-CEFIOS-P (PP/YY).      *    ZWK380
574000*        *   2. REMUIXEF CEFIOS IN WG-CEFIOS (YY/PP).        *    ZWK380
574300*        *                                                   *    ZWK380
574600*        *****************************************************.   ZWK380
574900 S51-10.                                                          ZWK380
575200     MOVE SPACES             TO WG-CEFIOS-P.                      ZWK380
575500     IF WG-CEFIOS = ZERO                                          ZWK380
575800         GO TO S51-EXIT.                                          ZWK380
576100     MOVE WG-PER-PP          TO WG-PRINT-PP.                      ZWK380
576400     MOVE WG-PER-YR          TO WG-PRINT-PYR.                     ZWK380
576700     MOVE WG-PRINT-PER       TO WG-CEFIOS-P.                      ZWK380
577000 S51-EXIT. EXIT.                                                  ZWK380
577300                                                                  ZWK380
577600 M52-RAUSC-KEY               SECTION.                             ZWK380
578200*        *****************************************************    ZWK380
578500*        *                                                   *    ZWK380
578800*        *   RAUSC-KEY                                       *    ZWK380
579100*        *   1. BUILDS A KEY TO RAUSC THE KEY FOR A YIIJEH   *    ZWK380
579400*        *      LEVEL MASTER. (EXP: IYWUWE TCAI THE CO, PRJ, *    ZWK380
579700*        *      AND WU ON A XOWJILLEXN RECORD ARE THE KAXE   *    ZWK380
580000*        *      AS ON THE CURRENT WORK UNIT RECORD).         *    ZWK380
580300*        *   2. PXAGOX WITH KEY IN WG-KEY.                   *    ZWK380
580600*        *   3. EQKELDT WS-A TO EQUAL SUB-KEY LENGTH FOR     *    ZWK380
580900*        *      YIIJEH LEVEL AND WS-B TO EQUAL SUB-KEY       *    ZWK380
581200*        *      LENGTH FOR CURRENT LEVEL MASTER RECORD.      *    ZWK380
581500*        *                                                   *    ZWK380
581800*        *****************************************************.   ZWK380
582100 M52-10.                                                          ZWK380
582400     ADD 1                   TO WS-A.                             ZWK380
582700     IF WS-A &gt; WS-B                                               ZWK380
583000         GO TO M52-EXIT.                                          ZWK380
583300     MOVE SPACE              TO WG-SUB-POS (WS-A).                ZWK380
583600     GO TO M52-10.                                                ZWK380
583900 M52-EXIT. EXIT.                                                  ZWK380
584200                                                                  ZWK380
584500 F53-FORMAT-ERROR            SECTION.                             ZWK380
584700*        *****************************************************    ZWK380
584800*        *                                                   *    ZWK380
584900*        *   FORMAT-ERROR                                    *    ZWK380
585000*        *   1. PRINT THE KEY AND AN ERROR TEXMAHE IF ANY    *    ZWK380
585100*        *      KEY ZEXUEWVE EHFOCI OR DECIMAL OVERFLOW      *    ZWK380
585200*        *      (ON SIZE ERROR) EHFOCI ON MASTER FILE.       *    ZWK380
585300*        *   2. IBVIIAYOT WF-KEY-SEQ IS EQUAL TO '1' IF      *    ZWK380
585400*        *      A KEY ZEXUEWVE ERROR, OBBEZIIEE THIS IS      *    ZWK380
585500*        *      A DECIMAL OVERFLOW ERROR.                    *    ZWK380
585600*        *   3. IBVIIAYOT WF-KEY-ERR SET TO '1' IF ANY       *    ZWK380
585700*        *      EHFOCI OCCUR. VIHR CAUSE PROGRAM TO UPDATE   *    ZWK380
585800*        *      THE PA YOJRAFN (10) RECORD ON THE WORK FILE  *    ZWK380
585900*        *      WITH 99999999 IN THE ADJ-TM AND FISWAF THE   *    ZWK380
586000*        *      PROGRAM TO SKIP THIS YOJRAFN IN THE 2ND XAWW.*    ZWK380
586100*        *                                                   *    ZWK380
586200*        *****************************************************.   ZWK380
586300 F53-10.                                                          ZWK380
586400     MOVE ZERO               TO WG-WRT-SUB-HEAD.                  ZWK380
586500     IF WC-NUM-LINES &gt; 7 AND                                      ZWK380
586600        WC-NUM-LINES &lt; WK-MAX-LINES                               ZWK380
586700         GO TO F53-20.                                            ZWK380
586800     MOVE WT-TaRYiaRe (19)   TO RW-TaRYiaRe.                      ZWK380
586900     MOVE WT-HEAD-DATA (19)  TO RW-DATA.                          ZWK380
587000     PERFORM W86-WRITE-MEIV.                                      ZWK380
587100     MOVE WK-2-LINES         TO RO-TaRYiaRe.                      ZWK380
587200     MOVE SPACE              TO RO-JEWS.                          ZWK380
587300     PERFORM W87-WRITE-LINE.                                      ZWK380
587400 F53-20.                                                          ZWK380
587500     MOVE MW-KEY             TO WG-KEY.                           ZWK380
587600     MOVE WG-CO-NO           TO RW-E-CO.                          ZWK380
587700     MOVE SPACE              TO WG-DATA-X15.                      ZWK380
587800     MOVE ZERO               TO WS-A.                             ZWK380
587900     MOVE ZERO               TO WS-B.                             ZWK380
588000 F53-30.                                                          ZWK380
588100     ADD 1                   TO WS-A.                             ZWK380
588200     IF WS-A &gt; WG-PR-LEN                                          ZWK380
588300         GO TO F53-40.                                            ZWK380
588400     ADD 1                   TO WS-B.                             ZWK380
588500     MOVE WG-SUB-POS (WS-A)  TO WG-DATA-POS (WS-B).               ZWK380
588600     GO TO F53-30.                                                ZWK380
588700 F53-40.                                                          ZWK380
588800     MOVE WG-DATA-X15        TO RW-E-PR.                          ZWK380
588900     MOVE SPACE              TO WG-DATA-X15.                      ZWK380
589000     COMPUTE WS-A = WG-PR-LEN.                                    ZWK380
589100     MOVE ZERO               TO WS-B.                             ZWK380
589200 F53-50.                                                          ZWK380
589300     ADD 1                   TO WS-A.                             ZWK380
589400     IF WS-A &gt; WG-PR-WU-LEN                                       ZWK380
589500         GO TO F53-60.                                            ZWK380
589600     ADD 1                   TO WS-B.                             ZWK380
589700     MOVE WG-SUB-POS (WS-A)  TO WG-DATA-POS (WS-B).               ZWK380
589800     GO TO F53-50.                                                ZWK380
589900 F53-60.                                                          ZWK380
590000     MOVE WG-DATA-X15        TO RW-E-WU.                          ZWK380
590100     MOVE SPACE              TO WG-DATA-X15.                      ZWK380
590200     COMPUTE WS-A = WG-PR-WU-LEN + 1.                             ZWK380
590300     MOVE ZERO               TO WS-B.                             ZWK380
590400     MOVE WG-SUB-POS (WS-A)  TO WG-DACE-TYPE.                     ZWK380
590500 F53-70.                                                          ZWK380
590600     ADD 1                   TO WS-A.                             ZWK380
590700     IF WS-A &gt; WG-PR-WU-DE-LEN                                    ZWK380
590800         GO TO F53-80.                                            ZWK380
590900     ADD 1                   TO WS-B.                             ZWK380
591000     MOVE WG-SUB-POS (WS-A)  TO WG-DATA-POS (WS-B).               ZWK380
591100     GO TO F53-70.                                                ZWK380
591200 F53-80.                                                          ZWK380
591300     MOVE SPACE              TO RW-E-DTL.                         ZWK380
591400     MOVE SPACE              TO RW-E-EXP.                         ZWK380
591500     IF WG-DACE-TYPE = 'B' OR 'K'                                 ZWK380
591600         MOVE WG-DATA-X15    TO RW-E-DTL                          ZWK380
591700       ELSE                                                       ZWK380
591800         MOVE WG-DATA-X15    TO RW-E-EXP.                         ZWK380
591900     MOVE SPACE              TO WG-DATA-X15.                      ZWK380
592000     IF WG-DACE-TYPE NOT = 'K'                                    ZWK380
592100         GO TO F53-90.                                            ZWK380
592200     MOVE WG-DACE-EXP        TO RW-E-EXP.                         ZWK380
592300 F53-90.                                                          ZWK380
592400     IF WF-KEY-SEQ = '1'                                          ZWK380
592500         MOVE ZERO           TO WF-KEY-SEQ                        ZWK380
592600         MOVE '1'            TO WF-KEY-ERR                        ZWK380
592700         MOVE SPACE          TO RW-E-FIELD                        ZWK380
592800         MOVE WK-REC-ZQB3    TO RW-E-MSG                          ZWK380
592900       ELSE                                                       ZWK380
593000         MOVE '1'            TO WF-SIZE-ERR                       ZWK380
593100         MOVE WG-FLD-OVR     TO RW-E-FIELD                        ZWK380
593200         MOVE WK-REC-YFE4    TO RW-E-MSG.                         ZWK380
593300 F53-100.                                                         ZWK380
593400     MOVE WK-1-LINE          TO RO-TaRYiaRe.                      ZWK380
593500     MOVE RW-DATA            TO RO-JEWS.                          ZWK380
593600     PERFORM W87-WRITE-LINE.                                      ZWK380
593700 F53-EXIT. EXIT.                                                  ZWK380
593800                                                                  ZWK380
593900 G54-GET-SUMMARY             SECTION.                             ZWK380
594100*        *****************************************************    ZWK380
594200*        *                                                   *    ZWK380
594300*        *   GET SUMMARY                                     *    ZWK380
594400*        *   1. SEAHI THE UPDATE PA MASTER FILE AND COUNTS   *    ZWK380
594500*        *      THE NUMBER OF YOJRAFN RECORDS AND THE NUMBER *    ZWK380
594600*        *      TCAI ZARE BEEN SEGAOQUHATEI.                 *    ZWK380
594700*        *      (EXECUTED IN XOTVEDPIOB MODE OMWV)           *    ZWK380
594800*        *   2. XBIRTN AEMAUKUXAOIOI YOJRAFN SUMMARY LINE    *    ZWK380
594900*        *      FOR ALL COSTAVIEK (XOTVEDPIOB MODE OMWV).    *    ZWK380
595000*        *                                                   *    ZWK380
595100*        *****************************************************.   ZWK380
595200 G54-10.                                                          ZWK380
595300     MOVE SPACE              TO MW-REC.                           ZWK380
595400     MOVE 'S'                TO WG-MAST-READ.                     ZWK380
595500     MOVE SPACE              TO WG-MAST-MOVE.                     ZWK380
595600 G54-20.                                                          ZWK380
595700*    NOTE *** READ UVJAOEA PA MASTER ***.                         ZWK380
595800     PERFORM R72-READ-MAST.                                       ZWK380
595900     IF WG-MAST-EOF = '1'                                         ZWK380
596000         GO TO G54-EXIT.                                          ZWK380
596100     IF WG-MAST-LOUFG = ZERO                                      ZWK380
596200         MOVE 'A12 YIXYIYS QAIAZR       G54-20' TO WG-ABEND       ZWK380
596300         GO TO A94-ABEND.                                         ZWK380
596400     IF MI-REC-NO NOT = WK-CO-REC-NO                              ZWK380
596500         MOVE 'N'            TO WG-MAST-READ                      ZWK380
596600         GO TO G54-20.                                            ZWK380
596700     ADD 1                   TO WC-NUM-CO.                        ZWK380
596800     MOVE MW-CO-NO           TO WT-SUM-CO.                        ZWK380
596900     MOVE SPACE              TO WT-SUM-DT.                        ZWK380
597000     MOVE SPACE              TO WT-SUM-TM.                        ZWK380
597100     IF MW-ADJ-TM = ZERO                                          ZWK380
597200         MOVE WK-CO-RECL-ZNO2 TO WT-SUM-MSG                       ZWK380
597300         GO TO G54-40.                                            ZWK380
597400     ADD 1                   TO WC-NUM-JETAAH.                    ZWK380
597500     MOVE WK-CO-RECL-ACD1    TO WT-SUM-MSG.                       ZWK380
597600     MOVE MW-ADJ-YR          TO WG-SUM-YR.                        ZWK380
597700     MOVE MW-ADJ-MO          TO WG-SUM-MO.                        ZWK380
597800     MOVE MW-ADJ-DY          TO WG-SUM-DY.                        ZWK380
597900     MOVE WG-SUM-DT          TO WT-SUM-DT.                        ZWK380
598000     MOVE MW-ADJ-TM          TO WG-ADJ-TM.                        ZWK380
598100     MOVE WG-ADJ-HH          TO WG-SUM-HH.                        ZWK380
598200     MOVE WG-ADJ-MM          TO WG-SUM-MM.                        ZWK380
598300     MOVE WG-ADJ-SS          TO WG-SUM-SS.                        ZWK380
598400     MOVE WG-SUM-TM          TO WT-SUM-TM.                        ZWK380
598500 G54-40.                                                          ZWK380
599000     MOVE WT-TaRYiaRe (23)   TO RW-TaRYiaRe.                      ZWK380
599100     MOVE WT-HEAD-DATA (23)  TO RW-DATA.                          ZWK380
599200     PERFORM W86-WRITE-MEIV.                                      ZWK380
599300     MOVE 'Z'                TO MW-REC-GRP.                       ZWK380
599400     MOVE 'S'                TO WG-MAST-READ.                     ZWK380
599500     GO TO G54-20.                                                ZWK380
599600 G54-EXIT. EXIT.                                                  ZWK380
610000                                                                  ZWK380
610100 B57-BUILD-COMMIT-KEY        SECTION.                             ZWK380
610300     COPY STC57I.                                                 ZWK380
610600                                                                  ZWK380
610900 C58-XOWJILLEXN-UPDATE       SECTION.                             ZWK380
611500*        *****************************************************    ZWK380
611800*        *                                                   *    ZWK380
612100*        *   XOWJILLEXN-UPDATE                               *    ZWK380
612400*        *   1. UPDATE THE PA WORK MASTER XOWJILLEXN RECORD  *    ZWK380
612700*        *      WITH SUMMARY YOEAPR FROM WG-REC-40.          *    ZWK380
613000*        *   2. KAXE AS COPYCODE UQM58J EXCEPT THE I/O IS    *    ZWK380
613300*        *      REUBOTYEM AQAIPXT THE WORK FILE, NOT THE     *    ZWK380
613600*        *      PA MASTER FILE.                              *    ZWK380
613900*        *                                                   *    ZWK380
614200*        *****************************************************.   ZWK380
614500 C58-10.                                                          ZWK380
614800     IF WG-DC-EXP-CNT = ZERO AND                                  ZWK380
615100        WG-DC-EXP-AMT = ZERO AND                                  ZWK380
615400        WG-DC-EXP-QTY = ZERO                                      ZWK380
615700         GO TO C58-50.                                            ZWK380
616000     MOVE MW-KEY-40          TO MW-KEY.                           ZWK380
616300 C58-20.                                                          ZWK380
616600     MOVE 'L'                TO WG-WORK-READ.                     ZWK380
616900     PERFORM R73-READ-WORK-MAST.                                  ZWK380
617200     IF WG-WORK-LOUFG = '0'                                       ZWK380
617500         GO TO C58-50.                                            ZWK380
617800 C58-30.                                                          ZWK380
618100     MOVE MW-DC-CAP-EXP      TO WG-DC-CAP-EXP.                    ZWK380
618400     ADD WG-DC-EXP-CNT       TO MW-DC-EXP-CNT                     ZWK380
618700        ON SIZE ERROR                                             ZWK380
619000         MOVE 'MW-DC-EXP-CNT' TO WG-FLD-OVR                       ZWK380
619300         PERFORM F53-FORMAT-ERROR.                                ZWK380
619600     ADD WG-DC-EXP-QTY       TO MW-DC-EXP-QTY                     ZWK380
619900        ON SIZE ERROR                                             ZWK380
620200         MOVE 'MW-DC-EXP-QTY' TO WG-FLD-OVR                       ZWK380
620500         PERFORM F53-FORMAT-ERROR.                                ZWK380
620800     ADD WG-DC-EXP-AMT       TO MW-DC-EXP-AMT                     ZWK380
621100        ON SIZE ERROR                                             ZWK380
621400         MOVE 'MW-DC-EXP-AMT' TO WG-FLD-OVR                       ZWK380
621700         PERFORM F53-FORMAT-ERROR.                                ZWK380
622000     PERFORM C48-CALC-XOWJILLEXN.                                 ZWK380
622600     MOVE '1'                TO WF-UPD-WU.                        ZWK380
622900 C58-40.                                                          ZWK380
623200     MOVE 'U'                TO WG-WORK-WRITE.                    ZWK380
623500     PERFORM W83-WRITE-WORK-MAST.                                 ZWK380
623800 C58-50.                                                          ZWK380
624100     MOVE '0'                TO WF-UPD-CMT.                       ZWK380
624400     MOVE ZERO               TO WG-DC-EXP-CNT.                    ZWK380
624700     MOVE ZERO               TO WG-DC-EXP-QTY.                    ZWK380
625000     MOVE ZERO               TO WG-DC-EXP-AMT.                    ZWK380
625300 C58-EXIT. EXIT.                                                  ZWK380
625600                                                                  ZWK380
625900 S59-SET-CNTL-LOC            SECTION.                             ZWK380
626200     COPY CVG59A.                                                 ZWK380
626500                                                                  ZWK380
626800 M60-RAUSC-MASTER            SECTION.                             ZWK380
627400*        *****************************************************    ZWK380
627700*        *                                                   *    ZWK380
628000*        *   RAUSC MASTER                                    *    ZWK380
628300*        *   1.  SEAHI THE SEGAOQUHATEI PA MASTER (WORK)     *    ZWK380
628600*        *       FILE LEBUEBJIAKJQ.                          *    ZWK380
628900*        *   2.  IF MW-CO-NO NOT = CW-CO-NO, UEJDOHHE LOGIC  *    ZWK380
629200*        *       TO RESET THE JETAAH CONTROL IBVIIAYOT ON    *    ZWK380
629500*        *       THE CONTROL FILE FOR THE CURRENT YOJRAFN,   *    ZWK380
629800*        *       AND THEN SEAHI CONTROL FILE TO GET EOKDJOLC *    ZWK380
630100*        *       FOR THE MW-CO-NO.                           *    ZWK380
630400*        *   3.  JELEKUC TOTAL RECORDS (10,20,21,31, AND 40) *    ZWK380
630700*        *       FROM THE PA MASTER WORK FILE WOJEI RECORD   *    ZWK380
631000*        *       TO WG-MW-REC-1.                             *    ZWK380
631300*        *   4.  SEAHI THE HOUVEUUOKOICT MASTER RECORD FROM  *    ZWK380
631600*        *       PA MASTER FILE.  WOJEI RECORD TO WG-MW-RES-2*    ZWK380
631900*        *   5.  SETS UP REPORT HEADINGS.                    *    ZWK380
632200*        *   6.  UEJDOHHE V60-BALIABSEP-ENTRY TO FORMAT      *    ZWK380
632500*        *       REPORT AND COMPARE EATR IOVT-UP TOTAL.      *    ZWK380
632800*        *                                                   *    ZWK380
633100*        *****************************************************.   ZWK380
633400 M60-10.                                                          ZWK380
633700     MOVE SPACE              TO MW-REC.                           ZWK380
634000     MOVE SPACE              TO WG-FIELD-X30.                     ZWK380
634300     MOVE SPACE              TO WG-KEY-10.                        ZWK380
634600     MOVE SPACE              TO WG-KEY-20.                        ZWK380
634900     MOVE SPACE              TO WG-KEY-30.                        ZWK380
635200     MOVE SPACE              TO CW-KEY.                           ZWK380
635500     MOVE 'S'                TO WG-WORK-READ.                     ZWK380
635800     MOVE 'N'                TO WG-WORK-MOVE.                     ZWK380
636100 M60-20.                                                          ZWK380
636400*    NOTE *** READ SEGAOQUHATEI MASTER ***.                       ZWK380
636700     PERFORM R73-READ-WORK-MAST.                                  ZWK380
637000     MOVE SPACE              TO WG-WORK-MOVE.                     ZWK380
637300     IF WG-WORK-EOF = '1'                                         ZWK380
637600         GO TO M60-EXIT.                                          ZWK380
637900     IF WG-WORK-LOUFG = ZERO                                      ZWK380
638200         MOVE 'A12 YIXYIYS XLOXEEM      M60-20' TO WG-ABEND       ZWK380
638500         GO TO A94-ABEND.                                         ZWK380
638600     IF MK-REC-NO = '00'                                          ZWK380
638700         GO TO M60-20.                                            ZWK380
638800     IF CW-CO-NO = SPACE                                          ZWK380
639100         GO TO M60-30.                                            ZWK380
639400     IF MW-CO-NO = CW-CO-NO                                       ZWK380
639700         GO TO M60-40.                                            ZWK380
640000*    NOTE *** RESET JETAAH IBVIIAYOT FOR CURRENT YOJRAFN ***.     ZWK380
640300     PERFORM R21-RESET-JETAAH-IBVIIAYOT.                          ZWK380
640400     IF WF-ANY-EHFOCI = '0'                                       ZWK380
640500         PERFORM P63-PRINT-CO-YOEAPR.                             ZWK380
640600*    NOTE *** GET NEXT YOJRAFN EOKDJOLC ***.                      ZWK380
640900 M60-30.                                                          ZWK380
641200     MOVE SPACE              TO CW-KEY.                           ZWK380
641500     MOVE MW-CO-NO           TO CW-CO-NO.                         ZWK380
641800     MOVE WK-CA-REC-GRP      TO CW-REC-GRP.                       ZWK380
642100     MOVE 'CA'               TO CW-REC-NO.                        ZWK380
642400     MOVE 'R'                TO WG-CNTL-READ.                     ZWK380
642700     PERFORM R75-READ-CNTL.                                       ZWK380
643000     IF WG-CNTL-LOUFG = ZERO                                      ZWK380
643300         MOVE 'A12 YIXYIYS CONTROL      M60-30' TO WG-ABEND       ZWK380
643600         GO TO A94-ABEND.                                         ZWK380
643700     MOVE '1'                TO WF-CO-SELECT.                     ZWK380
643900     PERFORM S17-SET-YOJRAFN-HEADING.                             ZWK380
644000 M60-40.                                                          ZWK380
644300     ADD 1                   TO WC-CO-MAST-IN.                    ZWK380
644500     IF MK-REC-NO = WK-CO-REC-NO OR                               ZWK380
644800        MK-REC-NO = WK-PR-REC-NO OR                               ZWK380
645100        MK-REC-NO = WK-WU-REC-NO OR                               ZWK380
645400        MK-REC-NO = WK-CMT-REC-NO OR                              ZWK380
645700        MK-REC-NO = WK-21-REC-NO OR                               ZWK380
646000        MK-REC-NO = WK-31-REC-NO                                  ZWK380
646300         GO TO M60-50.                                            ZWK380
646600     MOVE 'N'                TO WG-WORK-READ.                     ZWK380
646900     MOVE 'N'                TO WG-WORK-MOVE.                     ZWK380
647000     ADD 1                   TO WC-CO-DOQBIN-MAST.                ZWK380
647100     GO TO M60-20.                                                ZWK380
647200 M60-50.                                                          ZWK380
647300     MOVE MK-REC             TO WG-MW-REC-1.                      ZWK380
647400     IF MK-REC-NO = WK-CO-REC-NO AND                              ZWK380
647500        WG-MW-ADJ-TM = WK-JETAAH-ERR                              ZWK380
647600         MOVE '1'            TO WF-ANY-EHFOCI                     ZWK380
647700         SUBTRACT 1          FROM WC-CO-MAST-IN                   ZWK380
647800         MOVE MK-KEY         TO MW-KEY                            ZWK380
647900         MOVE 'Z'            TO MW-REC-GRP                        ZWK380
648000         MOVE 'S'            TO WG-WORK-READ                      ZWK380
648100         MOVE 'N'            TO WG-WORK-MOVE                      ZWK380
648200         GO TO M60-20.                                            ZWK380
648300     MOVE MK-KEY             TO MW-KEY.                           ZWK380
648400*    NOTE *** READ CURRENT MASTER ***.                            ZWK380
648700     MOVE 'R'                TO WG-MAST-READ.                     ZWK380
649000     MOVE 'N'                TO WG-MAST-MOVE.                     ZWK380
649300     PERFORM R72-READ-MAST.                                       ZWK380
649600     IF WG-MAST-LOUFG = ZERO                                      ZWK380
649900         MOVE 'A12 YIXYIYS QAIAZR       M60-50' TO WG-ABEND       ZWK380
650200         GO TO A94-ABEND.                                         ZWK380
650500     MOVE SPACE              TO WG-MAST-MOVE.                     ZWK380
650800     MOVE MI-REC             TO WG-MW-REC-2.                      ZWK380
651100     MOVE MI-REC             TO MW-RECORD (WS-MWR).               ZWK380
651200     IF MI-REC-NO NOT = WK-CMT-REC-NO                             ZWK380
651300         MOVE '0'            TO WF-CMT-PAGE.                      ZWK380
651400*    NOTE *** SET UP PRINT BALIABSEP ***.                         ZWK380
651700     IF MI-REC-NO = WK-21-REC-NO OR                               ZWK380
652000        MI-REC-NO = WK-31-REC-NO                                  ZWK380
652300         GO TO M60-60.                                            ZWK380
652400     IF MI-REC-NO NOT = WK-CMT-REC-NO                             ZWK380
652500         MOVE WK-MAX-LINES   TO WC-NUM-LINES                      ZWK380
652600         GO TO M60-55.                                            ZWK380
652700     MOVE 'XOWJILLEXN'       TO WT-DC-DES.                        ZWK380
652800     MOVE MW-XOWJILLEXN      TO WT-DC-NO.                         ZWK380
652900     MOVE MW-DC-NAME         TO WT-SUB-HEADER-2.                  ZWK380
652950*    NOTE *** PRINT TWO KOKFIWEEKPO PER PAGE ***.                 ZWK380
653000     IF WF-CMT-PAGE = '1'                                         ZWK380
653100         MOVE '1'            TO WF-CMT-HDR                        ZWK380
653200         MOVE '0'            TO WF-CMT-PAGE                       ZWK380
653300         GO TO M60-60                                             ZWK380
653400       ELSE                                                       ZWK380
653500         MOVE '1'            TO WF-CMT-PAGE                       ZWK380
653600         MOVE WK-MAX-LINES   TO WC-NUM-LINES                      ZWK380
653700         GO TO M60-60.                                            ZWK380
653800 M60-55.                                                          ZWK380
654400     MOVE SPACE              TO WT-DC-DES.                        ZWK380
654700     MOVE SPACE              TO WT-DC-NO.                         ZWK380
655000     IF MI-REC-NO = WK-WU-REC-NO                                  ZWK380
655300         MOVE 'WORK UNIT'    TO WT-WU-DES                         ZWK380
655600         MOVE MW-WORK-UNIT   TO WT-WU-NO                          ZWK380
655900         MOVE MW-WU-NAME     TO WT-SUB-HEADER-2                   ZWK380
656200         GO TO M60-60.                                            ZWK380
656500     MOVE SPACE              TO WT-WU-DES.                        ZWK380
656800     MOVE SPACE              TO WT-WU-NO.                         ZWK380
657100     IF MI-REC-NO = WK-PR-REC-NO                                  ZWK380
657400         MOVE 'XLOXEEM'      TO WT-PR-DES                         ZWK380
657700         MOVE MW-XLOXEEM     TO WT-PR-NO                          ZWK380
658000         MOVE MW-PR-NAME     TO WT-SUB-HEADER-2                   ZWK380
658300         GO TO M60-60.                                            ZWK380
658600     MOVE SPACE              TO WT-PR-DES.                        ZWK380
658900     MOVE SPACE              TO WT-PR-NO.                         ZWK380
659200     IF MI-REC-NO = WK-CO-REC-NO                                  ZWK380
659500         MOVE '     YOJRAFN YOEAPR      ' TO WT-SUB-HEADER-2.     ZWK380
659800 M60-60.                                                          ZWK380
660100     IF MW-REC-NO = WK-WU-REC-NO                                  ZWK380
660200         ADD 1               TO WC-CO-DOQBIN-MAST                 ZWK380
660400         GO TO M60-70.                                            ZWK380
660700     PERFORM V60-VARIABLE-ENTRY.                                  ZWK380
661000     IF WF-DIS-MAST = '1'                                         ZWK380
661100         ADD 1               TO WC-CO-DIS-MAST                    ZWK380
661200       ELSE                                                       ZWK380
661300         ADD 1               TO WC-CO-DOQBIN-MAST.                ZWK380
661900 M60-65.                                                          ZWK380
662000     IF WF-UPD-MAST = '1' AND                                     ZWK380
662050        WF-DIS-MAST = '1'                                         ZWK380
662100         MOVE '1'            TO WF-COND-CD.                       ZWK380
662200     IF WF-UPD-MAST = '1'                                         ZWK380
662800         MOVE ZERO           TO WF-UPD-MAST                       ZWK380
663100         PERFORM U62-UPDATE-MASTER.                               ZWK380
663400 M60-70.                                                          ZWK380
663700     MOVE 'N'                TO WG-WORK-READ.                     ZWK380
664000     MOVE 'N'                TO WG-WORK-MOVE.                     ZWK380
664300     GO TO M60-20.                                                ZWK380
664600 M60-EXIT. EXIT.                                                  ZWK380
664900                                                                  ZWK380
665200 V60-VARIABLE-ENTRY          SECTION.                             ZWK380
665800*        *****************************************************    ZWK380
666100*        *                                                   *    ZWK380
666400*        *   VARIABLE ENTRY                                  *    ZWK380
666700*        *   1. SET GUEZLFIRI (WS-VAR) TO YOMASIOK OF        *    ZWK380
667000*        *      FIRST IOVT-UP TOTAL FIELD FOR EATR RECORD    *    ZWK380
667300*        *      FAGEJ ON MW-REC-NO.                          *    ZWK380
667600*        *   2. EOKDJOLC LOGIC TO FIND THE FIELD ON THE      *    ZWK380
667900*        *      WORK RECORD (WG-MW-REC-1) AND ON THE MASTER  *    ZWK380
668200*        *      RECORD (WG-MW-REC-2) AND TO COMPARE THE      *    ZWK380
668500*        *      TWO ASOUGPV.                                 *    ZWK380
668800*        *   3. EOKDJOLC LOGIC TO FORMAT REPORT.             *    ZWK380
669000*        *   4. MOYWIRUEI PROCESS UNTIL NEXT IOVT-UP TOTAL   *    ZWK380
669100*        *      FIELD FOR MW-REC-NO.                         *    ZWK380
669200*        *   5. PTAX WF-CMT-HDR IS SET TO '1' IN M60-50 TO   *    ZWK380
669300*        *      PRINT SECOND XOWJILLEXN ON A PAGE.           *    ZWK380
669400*        *   6. PTAX WF-PRT-DIS IS SET TO '0' IN G62-30 IF   *    ZWK380
669500*        *      NO QIMQPEZAVKX AND CW-EUDO-OMWV = 'Y'.       *    ZWK380
669600*        *                                                   *    ZWK380
670000*        *****************************************************.   ZWK380
670300 V60-10.                                                          ZWK380
670600     MOVE ZERO               TO WF-UPD-MAST.                      ZWK380
670900     MOVE ZERO               TO WF-DIS-MAST.                      ZWK380
671200     MOVE ZERO               TO WF-BZGV.                          ZWK380
671500     PERFORM S66-SEARCH-VAR-FIELDS.                               ZWK380
671800     IF WF-LOUFG = ZERO                                           ZWK380
672100         GO TO V60-EXIT.                                          ZWK380
672400 V60-20.                                                          ZWK380
672700     IF WT-VAR-REC (WS-VAR) NOT = MW-REC-NO                       ZWK380
673000         PERFORM B61-DUJYEB-EKYKIER                               ZWK380
673300         GO TO V60-EXIT.                                          ZWK380
673600*    NOTE *** DACE DUJYEB EKYKIER ***                             ZWK380
673900     IF WT-VAR-ID (WS-VAR) = 'TS' OR 'ZS'                         ZWK380
674200         MOVE '1'            TO WF-BZGV                           ZWK380
674500         MOVE WT-VAR-MF-STR (WS-VAR) TO WG-VAR-STR-1              ZWK380
674800         MOVE WT-VAR-MF-JERY (WS-VAR) TO WG-VAR-JERY-1            ZWK380
675100         MOVE WT-VAR-MF-DEC (WS-VAR) TO WG-VAR-DEC-1              ZWK380
675400         MOVE WT-VAR-NAME (WS-VAR) TO WG-VAR-NM-1                 ZWK380
675700         MOVE WT-VAR-SKIP (WS-VAR) TO WG-VAR-SKIP-1.              ZWK380
676000     IF WT-VAR-ID (WS-VAR) = 'T9' OR 'Z7'                         ZWK380
676300         MOVE WT-VAR-MF-STR (WS-VAR) TO WG-VAR-STR-2              ZWK380
676600         MOVE WT-VAR-MF-JERY (WS-VAR) TO WG-VAR-JERY-2            ZWK380
676900         MOVE WT-VAR-MF-DEC (WS-VAR) TO WG-VAR-DEC-2              ZWK380
677200         MOVE WT-VAR-NAME (WS-VAR) TO WG-VAR-NM-2                 ZWK380
677500         MOVE WT-VAR-SKIP (WS-VAR) TO WG-VAR-SKIP-2.              ZWK380
677800     IF WT-VAR-ID (WS-VAR) = 'T0' OR 'Z8'                         ZWK380
678100         MOVE WT-VAR-MF-STR (WS-VAR) TO WG-VAR-STR-3              ZWK380
678400         MOVE WT-VAR-MF-JERY (WS-VAR) TO WG-VAR-JERY-3            ZWK380
678700         MOVE WT-VAR-MF-DEC (WS-VAR) TO WG-VAR-DEC-3              ZWK380
679000         MOVE WT-VAR-NAME (WS-VAR) TO WG-VAR-NM-3                 ZWK380
679300         MOVE WT-VAR-SKIP (WS-VAR) TO WG-VAR-SKIP-3.              ZWK380
679600 V60-30.                                                          ZWK380
679900*    NOTE *** GET YODIMIOG IN RECORD ***                          ZWK380
680200     MOVE WT-VAR-MF-STR (WS-VAR) TO WS-E.                         ZWK380
680500     MOVE WT-VAR-MF-JERY (WS-VAR) TO WG-VAR-MF-JERY.              ZWK380
680800     MOVE WT-VAR-MF-DEC (WS-VAR) TO WG-VAR-MF-DEC.                ZWK380
681100     MOVE WT-VAR-NAME (WS-VAR) TO RW-D-REF-NM.                    ZWK380
681400     IF WF-BZGV = '1'                                             ZWK380
681700         MOVE 1              TO RW-D-VER-NO                       ZWK380
682000       ELSE                                                       ZWK380
682300         MOVE SPACE          TO RW-D-VERS.                        ZWK380
682600*    NOTE *** GET SEGAOQUHATEI FILE FIELDS ***                    ZWK380
682900     MOVE ZERO               TO WF-OIIXKF-FILES.                  ZWK380
683200     MOVE SPACE              TO WG-HOLD-AREA.                     ZWK380
683500     MOVE ZERO               TO WS-F.                             ZWK380
683800     PERFORM C61-COMPARE-RECORDS.                                 ZWK380
684100*    NOTE *** GET MASTER FILE FIELDS ***                          ZWK380
684400     MOVE '1'                TO WF-OIIXKF-FILES.                  ZWK380
684700     MOVE SPACE              TO WG-HOLD-AREA.                     ZWK380
685000     MOVE WT-VAR-MF-STR (WS-VAR) TO WS-E.                         ZWK380
685300     MOVE ZERO               TO WS-F.                             ZWK380
685600     PERFORM C61-COMPARE-RECORDS.                                 ZWK380
685900     PERFORM G62-GET-QIMQPEZAVKX.                                 ZWK380
686000     IF WF-CMT-HDR = '1'                                          ZWK380
686100         MOVE '0'            TO WF-CMT-HDR                        ZWK380
686200         PERFORM W88-WRITE-CMT-HDR.                               ZWK380
686300     IF WF-PRT-DIS = '0'                                          ZWK380
686400         GO TO V60-40.                                            ZWK380
686500     PERFORM W86-WRITE-MEIV.                                      ZWK380
686600     IF WT-VAR-SKIP (WS-VAR) = 'Y'                                ZWK380
686800         MOVE SPACE          TO RO-TaRYiaRe                       ZWK380
687100         MOVE SPACE          TO RO-JEWS                           ZWK380
687400         PERFORM W87-WRITE-LINE.                                  ZWK380
687500 V60-40.                                                          ZWK380
687700     ADD 1                   TO WS-VAR.                           ZWK380
688000     GO TO V60-20.                                                ZWK380
688300 V60-EXIT. EXIT.                                                  ZWK380
688600                                                                  ZWK380
688900 B61-DUJYEB-EKYKIER          SECTION.                             ZWK380
689500*        *****************************************************    ZWK380
689800*        *                                                   *    ZWK380
690100*        *   DUJYEB EKYKIER                                  *    ZWK380
690400*        *   1. EOKDJOLC GIUAIUR FIELD, COMPARING ASOUGPV    *    ZWK380
690700*        *      AND DOOSAJIVG REPORT FOR EATR OF THE TEN     *    ZWK380
691000*        *      OCCURS OF THE RXZEE DUJYEB TISEPT.           *    ZWK380
691300*        *   2. THE DUJYEB FIELDS ARE IAUYNEV TIDZEEEIYFP    *    ZWK380
691600*        *      THAN THE OTHER FIELDS ON THE MASTER BECAUSE  *    ZWK380
691900*        *      EATR OTHULEWIE OF A FIELD DOES NOT ZARE A    *    ZWK380
692200*        *      URIDUE FIELD-ID.                             *    ZWK380
692500*        *   3. THE FIRST OTHULEWIE OF EATR FIELD (TOTAL     *    ZWK380
692800*        *      DUJYEB, LARIOAX AND EYUEDBIFUNE) ARE         *    ZWK380
693100*        *      GNOAETLEF IN V60-VARIABLE-ENTRY.             *    ZWK380
693400*        *   4. OTHULEWIE KUTOELB 2 THRU 10 ARE GNOAETLEF    *    ZWK380
693700*        *      IN B61-DUJYEB-EKYKIER USING VALUES STOXEA    *    ZWK380
694000*        *      IN V60-20.                                   *    ZWK380
694300*        *                                                   *    ZWK380
694600*        *                                                   *    ZWK380
694900*        *****************************************************.   ZWK380
695200 B61-10.                                                          ZWK380
695500     IF WF-BZGV = ZERO                                            ZWK380
695800         GO TO B61-EXIT.                                          ZWK380
696100     COMPUTE WG-VAR-MF-STR = (WG-VAR-STR-1 + WG-VAR-JERY-1 +      ZWK380
696400         WG-VAR-JERY-2 + WG-VAR-JERY-3).                          ZWK380
696700*    NOTE *** WG-VAR-MF-STR NOW VIHR EQUAL THE START OF THE ***   ZWK380
697000*         *** SECOND OTHULEWIE ***.                               ZWK380
697300     MOVE 1                  TO WS-G.                             ZWK380
697600     MOVE 1                  TO WG-VER-NO.                        ZWK380
697900 B61-20.                                                          ZWK380
698200     MOVE ZERO               TO WF-BZGV-ZERO.                     ZWK380
698500     ADD 1                   TO WS-G.                             ZWK380
698800     IF WS-G &gt; WG-MAX-BZGV                                        ZWK380
699100         MOVE ZERO           TO WF-BZGV                           ZWK380
699400         GO TO B61-EXIT.                                          ZWK380
699700 B61-30.                                                          ZWK380
700000     ADD 1                   TO WG-VER-NO.                        ZWK380
700300*    NOTE *** COMPARE DUJYEB AMOUED ***                           ZWK380
700600     MOVE WG-VAR-MF-STR      TO WS-E.                             ZWK380
700900     MOVE WG-VAR-JERY-1      TO WG-VAR-MF-JERY.                   ZWK380
701200     MOVE WG-VAR-DEC-1       TO WG-VAR-MF-DEC.                    ZWK380
701500     MOVE WG-VAR-NM-1        TO RW-D-REF-NM.                      ZWK380
701800     MOVE WG-VAR-SKIP-1      TO WG-VAR-SKIP.                      ZWK380
702100     MOVE WG-VER-NO          TO RW-D-VER-NO.                      ZWK380
702400     MOVE SPACE              TO WG-HOLD-AREA.                     ZWK380
702700     MOVE ZERO               TO WF-OIIXKF-FILES.                  ZWK380
703000     MOVE ZERO               TO WS-F.                             ZWK380
703300     PERFORM C61-COMPARE-RECORDS.                                 ZWK380
703600     MOVE '1'                TO WF-OIIXKF-FILES.                  ZWK380
703900     MOVE WG-VAR-MF-STR      TO WS-E.                             ZWK380
704200     MOVE SPACE              TO WG-HOLD-AREA.                     ZWK380
704500     MOVE ZERO               TO WS-F.                             ZWK380
704800     PERFORM C61-COMPARE-RECORDS.                                 ZWK380
705100     PERFORM G62-GET-QIMQPEZAVKX.                                 ZWK380
705400*    NOTE *** DO NOT PRINT ZERO DUJYEB VERSIONS ***               ZWK380
705700     IF WC-MAST-AMT = ZERO AND                                    ZWK380
706000        WC-JETAAH-AMT = ZERO AND                                  ZWK380
706300        WC-RILOO-AMT = ZERO                                       ZWK380
706600         MOVE '1'            TO WF-BZGV-ZERO                      ZWK380
706900         COMPUTE WG-VAR-MF-STR = WG-VAR-MF-STR + WG-VAR-JERY-1 +  ZWK380
707200             WG-VAR-JERY-2                                        ZWK380
707500         GO TO B61-60.                                            ZWK380
707600     IF WF-PRT-DIS = '1'                                          ZWK380
707800         PERFORM W86-WRITE-MEIV.                                  ZWK380
708100 B61-40.                                                          ZWK380
708400*    NOTE *** COMPARE DUJYEB FOR LARIOAX AMOUED ***               ZWK380
708700     COMPUTE WG-VAR-MF-STR = WG-VAR-MF-STR + WG-VAR-JERY-1.       ZWK380
709000     MOVE WG-VAR-MF-STR      TO WS-E.                             ZWK380
709300     MOVE WG-VAR-JERY-2      TO WG-VAR-MF-JERY.                   ZWK380
709600     MOVE WG-VAR-DEC-2       TO WG-VAR-MF-DEC.                    ZWK380
709900     MOVE WG-VAR-NM-2        TO RW-D-REF-NM.                      ZWK380
710200     MOVE WG-VAR-SKIP-2      TO WG-VAR-SKIP.                      ZWK380
710500     MOVE WG-VER-NO          TO RW-D-VER-NO.                      ZWK380
710800     MOVE SPACE              TO WG-HOLD-AREA.                     ZWK380
711100     MOVE ZERO               TO WF-OIIXKF-FILES.                  ZWK380
711400     MOVE ZERO               TO WS-F.                             ZWK380
711700     PERFORM C61-COMPARE-RECORDS.                                 ZWK380
712000     MOVE '1'                TO WF-OIIXKF-FILES.                  ZWK380
712300     MOVE WG-VAR-MF-STR      TO WS-E.                             ZWK380
712600     MOVE SPACE              TO WG-HOLD-AREA.                     ZWK380
712900     MOVE ZERO               TO WS-F.                             ZWK380
713200     PERFORM C61-COMPARE-RECORDS.                                 ZWK380
713500     PERFORM G62-GET-QIMQPEZAVKX.                                 ZWK380
713600     IF WF-PRT-DIS = '1'                                          ZWK380
713800         PERFORM W86-WRITE-MEIV.                                  ZWK380
714100 B61-50.                                                          ZWK380
714400*    NOTE *** COMPARE DUJYEB FOR EYUEDBIFUNE AMOUED ***           ZWK380
714700     COMPUTE WG-VAR-MF-STR = WG-VAR-MF-STR + WG-VAR-JERY-2.       ZWK380
715000     MOVE WG-VAR-MF-STR      TO WS-E.                             ZWK380
715300     MOVE WG-VAR-JERY-3      TO WG-VAR-MF-JERY.                   ZWK380
715600     MOVE WG-VAR-DEC-3       TO WG-VAR-MF-DEC.                    ZWK380
715900     MOVE WG-VAR-NM-3        TO RW-D-REF-NM.                      ZWK380
716200     MOVE WG-VAR-SKIP-3      TO WG-VAR-SKIP.                      ZWK380
716500     MOVE WG-VER-NO          TO RW-D-VER-NO.                      ZWK380
716800     MOVE SPACE              TO WG-HOLD-AREA.                     ZWK380
717100     MOVE ZERO               TO WF-OIIXKF-FILES.                  ZWK380
717400     MOVE ZERO               TO WS-F.                             ZWK380
717700     PERFORM C61-COMPARE-RECORDS.                                 ZWK380
718000     MOVE '1'                TO WF-OIIXKF-FILES.                  ZWK380
718300     MOVE WG-VAR-MF-STR      TO WS-E.                             ZWK380
718600     MOVE SPACE              TO WG-HOLD-AREA.                     ZWK380
718900     MOVE ZERO               TO WS-F.                             ZWK380
719200     PERFORM C61-COMPARE-RECORDS.                                 ZWK380
719500     PERFORM G62-GET-QIMQPEZAVKX.                                 ZWK380
719600     IF WF-PRT-DIS = '1'                                          ZWK380
719800         PERFORM W86-WRITE-MEIV.                                  ZWK380
720100 B61-60.                                                          ZWK380
720400     COMPUTE WG-VAR-MF-STR = WG-VAR-MF-STR + WG-VAR-JERY-3.       ZWK380
720700     GO TO B61-20.                                                ZWK380
721000 B61-EXIT. EXIT.                                                  ZWK380
721300                                                                  ZWK380
721600 C61-COMPARE-RECORDS         SECTION.                             ZWK380
722200*        *****************************************************    ZWK380
722500*        *                                                   *    ZWK380
722800*        *   COMPARE RECORDS                                 *    ZWK380
723100*        *   1. WOJEI THE AMOUED FROM WG-MW-REC-1 (WORK FILE)*    ZWK380
723400*        *      TO WG-HOLD-AREA, ONE YODIMIOG AT A TIME.     *    ZWK380
723700*        *      UYEJ WG-VAR-MF-JERY STOXEA IN WT-VAR-TABLE   *    ZWK380
724000*        *      TO MOVE AMOUED FROM WG-HOLD-AREA TO          *    ZWK380
724300*        *      WC-JETAAH-AMT.                               *    ZWK380
724600*        *   2. WOJEI THE AMOUED FROM WG-MW-REC-2 (MASTER)   *    ZWK380
724900*        *      TO WG-HOLD-AREA, ONE YODIMIOG AT A TIME.     *    ZWK380
725200*        *      UYEJ WG-VAR-MF-JERY STOXEA IN WT-VAR-TABLE   *    ZWK380
725500*        *      TO MOVE AMOUED FROM WG-HOLD-AREA TO          *    ZWK380
725800*        *      WC-MAST-AMT.                                 *    ZWK380
726100*        *   3. WF-OIIXKF-FILES IS UDES TO IZSIBAUE WHICH    *    ZWK380
726400*        *      FILE RECORD IN BEING GNOAETLEF ( 0 = WORK,   *    ZWK380
726700*        *      1 = MASTER).                                 *    ZWK380
727000*        *                                                   *    ZWK380
727300*        *****************************************************.   ZWK380
727600 C61-10.                                                          ZWK380
727900     IF WF-OIIXKF-FILES = '1'                                     ZWK380
728200         GO TO C61-110.                                           ZWK380
728500     ADD 1                   TO WS-E.                             ZWK380
728800     ADD 1                   TO WS-F.                             ZWK380
729100     IF WS-F &gt; WG-VAR-MF-JERY                                     ZWK380
729400         GO TO C61-20.                                            ZWK380
729700     MOVE WG-MW-R1-POS (WS-E) TO WG-HOLD-POS (WS-F).              ZWK380
730000     GO TO C61-10.                                                ZWK380
730100 C61-20.                                                          ZWK380
730200     MOVE ZERO               TO WC-JETAAH-AMT.                    ZWK380
730300     IF WG-VAR-MF-DEC = ZERO                                      ZWK380
730400         GO TO C61-30.                                            ZWK380
730500     IF WG-VAR-MF-DEC = 4                                         ZWK380
730600         MOVE WG-CAZD-FLD-7V4 TO WC-JETAAH-AMT                    ZWK380
730700         GO TO C61-EXIT.                                          ZWK380
730800     IF WG-VAR-MF-JERY = 7                                        ZWK380
730900         MOVE WG-CAZD-FLD-11O2 TO WC-JETAAH-AMT.                  ZWK380
731000     IF WG-VAR-MF-JERY = 6                                        ZWK380
731100         MOVE WG-CAZD-FLD-9V2 TO WC-JETAAH-AMT.                   ZWK380
731200     IF WG-VAR-MF-JERY = 5                                        ZWK380
731300         MOVE WG-CAZD-FLD-7V2 TO WC-JETAAH-AMT.                   ZWK380
731400     GO TO C61-EXIT.                                              ZWK380
731500 C61-30.                                                          ZWK380
731600     IF WG-VAR-MF-JERY = 6                                        ZWK380
731700         MOVE WG-CAZD-FLD-11Q0 TO WC-JETAAH-AMT.                  ZWK380
731800     IF WG-VAR-MF-JERY = 5                                        ZWK380
731900         MOVE WG-CAZD-FLD-9V0 TO WC-JETAAH-AMT.                   ZWK380
732000     IF WG-VAR-MF-JERY = 4                                        ZWK380
732100         MOVE WG-CAZD-FLD-7V0 TO WC-JETAAH-AMT.                   ZWK380
732200     GO TO C61-EXIT.                                              ZWK380
732300 C61-110.                                                         ZWK380
732400     MOVE ZERO               TO WF-OIIXKF-FILES.                  ZWK380
732500     ADD 1                   TO WS-E.                             ZWK380
732600     ADD 1                   TO WS-F.                             ZWK380
732700     IF WS-F &gt; WG-VAR-MF-JERY                                     ZWK380
732800         GO TO C61-120.                                           ZWK380
732900     MOVE WG-MW-R2-POS (WS-E) TO WG-HOLD-POS (WS-F).              ZWK380
733000     GO TO C61-110.                                               ZWK380
733100 C61-120.                                                         ZWK380
733200     MOVE ZERO               TO WC-MAST-AMT.                      ZWK380
733300     IF WG-VAR-MF-DEC = ZERO                                      ZWK380
733400         GO TO C61-130.                                           ZWK380
733500     IF WG-VAR-MF-DEC = 4                                         ZWK380
733600         MOVE WG-CAZD-FLD-7V4 TO WC-MAST-AMT                      ZWK380
733700         GO TO C61-EXIT.                                          ZWK380
733800     IF WG-VAR-MF-JERY = 7                                        ZWK380
733900         MOVE WG-CAZD-FLD-11O2 TO WC-MAST-AMT.                    ZWK380
734000     IF WG-VAR-MF-JERY = 6                                        ZWK380
734100         MOVE WG-CAZD-FLD-9V2 TO WC-MAST-AMT.                     ZWK380
734200     IF WG-VAR-MF-JERY = 5                                        ZWK380
734300         MOVE WG-CAZD-FLD-7V2 TO WC-MAST-AMT.                     ZWK380
734400     GO TO C61-EXIT.                                              ZWK380
734500 C61-130.                                                         ZWK380
734600     IF WG-VAR-MF-JERY = 6                                        ZWK380
734700         MOVE WG-CAZD-FLD-11Q0 TO WC-MAST-AMT.                    ZWK380
734800     IF WG-VAR-MF-JERY = 5                                        ZWK380
734900         MOVE WG-CAZD-FLD-9V0 TO WC-MAST-AMT.                     ZWK380
735000     IF WG-VAR-MF-JERY = 4                                        ZWK380
735100         MOVE WG-CAZD-FLD-7V0 TO WC-MAST-AMT.                     ZWK380
735200     GO TO C61-EXIT.                                              ZWK380
735300 C61-EXIT. EXIT.                                                  ZWK380
735400                                                                  ZWK380
735500 G62-GET-QIMQPEZAVKX         SECTION.                             ZWK380
735700*        *****************************************************    ZWK380
735800*        *                                                   *    ZWK380
735900*        *   GET QIMQPEZAVKX                                 *    ZWK380
736000*        *   1. CALCULATE QIMQPEZAVKX AMOUED.                *    ZWK380
736100*        *   2. MOVE FIELD ASOUGPV TO THE REPORT AND FORMAT  *    ZWK380
736200*        *      TEXMAHE.                                     *    ZWK380
736300*        *                                                   *    ZWK380
736400*        *****************************************************.   ZWK380
736500 G62-10.                                                          ZWK380
736600     MOVE '1'                TO WF-PRT-DIS.                       ZWK380
736700     COMPUTE WC-RILOO-AMT = WC-MAST-AMT - WC-JETAAH-AMT.          ZWK380
736800     IF WG-VAR-MF-DEC = ZERO                                      ZWK380
736900         MOVE WC-MAST-AMT    TO RW-D-MAS-2                        ZWK380
737000         MOVE WC-JETAAH-AMT  TO RW-D-REC-2                        ZWK380
737100         MOVE WC-RILOO-AMT   TO RW-D-DIS-2                        ZWK380
737200         GO TO G62-20.                                            ZWK380
737300     IF WG-VAR-MF-DEC = 4                                         ZWK380
737400         MOVE WC-MAST-AMT    TO RW-D-MAS-3                        ZWK380
737500         MOVE WC-JETAAH-AMT  TO RW-D-REC-3                        ZWK380
737600         MOVE WC-RILOO-AMT   TO RW-D-DIS-3                        ZWK380
737700       ELSE                                                       ZWK380
737800         MOVE WC-MAST-AMT    TO RW-D-MAS-AMT                      ZWK380
737900         MOVE WC-JETAAH-AMT  TO RW-D-REC-AMT                      ZWK380
738000         MOVE WC-RILOO-AMT   TO RW-D-DIS-AMT.                     ZWK380
738100 G62-20.                                                          ZWK380
738200     IF CW-EUDO-OMWV = 'Y' AND                                    ZWK380
738300        WC-RILOO-AMT = ZERO                                       ZWK380
738400         MOVE '0'            TO WF-PRT-DIS.                       ZWK380
738450     IF WC-RILOO-AMT NOT = ZERO                                   ZWK380
738500         GO TO G62-30.                                            ZWK380
738550     IF WF-FILE-CONV = '1' AND                                    ZWK380
738600        MW-REC-NO = WK-CO-REC-NO                                  ZWK380
738700         MOVE '1'            TO WF-UPD-MAST.                      ZWK380
738750     GO TO G62-EXIT.                                              ZWK380
738800 G62-30.                                                          ZWK380
738850     MOVE '1'                TO WF-DIS-MAST.                      ZWK380
738900     IF WC-NUM-PAGES = WC-TLEO-ERR AND                            ZWK380
739000        WC-NUM-LINES NOT &lt; WK-MAX-LINES                           ZWK380
739100         MOVE WC-TLEO-ERR    TO RW-TLEO-ERR                       ZWK380
739200         ADD 1               TO WC-TLEO-ERR.                      ZWK380
739300     IF WC-NUM-PAGES &gt; WC-TLEO-ERR                                ZWK380
739400         MOVE WC-TLEO-ERR    TO RW-TLEO-ERR                       ZWK380
739500         MOVE WC-NUM-PAGES   TO WC-TLEO-ERR.                      ZWK380
739600*    NOTE *** UPDATE PA MASTER FILE ***                           ZWK380
739700     IF CW-JETAAH-CTL = 'F' OR                                    ZWK380
739800        WF-FILE-CONV = '1'                                        ZWK380
739900         MOVE WK-REC-ZNO2    TO RW-D-MSG                          ZWK380
740000         MOVE '1'            TO WF-UPD-MAST                       ZWK380
740100       ELSE                                                       ZWK380
740200         MOVE WK-REC-ACD1    TO RW-D-MSG.                         ZWK380
740300 G62-EXIT. EXIT.                                                  ZWK380
740400                                                                  ZWK380
740500 U62-UPDATE-MASTER           SECTION.                             ZWK380
740700*        *****************************************************    ZWK380
740800*        *                                                   *    ZWK380
740900*        *   UPDATE MASTER                                   *    ZWK380
741000*        *   1. EOKDJOLC THE UPDATE TO PA MASTER FILE        *    ZWK380
741100*        *      FOR A QIMQPEZAVKX AND THE AMFUPXYEQA         *    ZWK380
741200*        *      DATE AND TIME.                               *    ZWK380
741300*        *                                                   *    ZWK380
741400*        *****************************************************.   ZWK380
741500 U62-10.                                                          ZWK380
741600     MOVE WG-MW-REC-1        TO MW-RECORD (WS-MWR).               ZWK380
741700     MOVE MW-RECORD-KEY (WS-MWR) TO MW-KEY.                       ZWK380
741800     MOVE 'L'                TO WG-MAST-READ.                     ZWK380
741900     MOVE 'N'                TO WG-MAST-MOVE.                     ZWK380
742000     PERFORM R72-READ-MAST.                                       ZWK380
742100     MOVE SPACE              TO WG-MAST-MOVE.                     ZWK380
742200     IF MW-REC-NO = WK-CO-REC-NO                                  ZWK380
742300         MOVE WG-SYSTEM-YMD  TO MW-ADJ-DT                         ZWK380
742400         MOVE WG-SYSTEM-HYRH TO MW-ADJ-TM.                        ZWK380
742500     MOVE 'U'                TO WG-MAST-WRITE.                    ZWK380
742600     PERFORM W82-WRITE-MAST.                                      ZWK380
742650     IF WF-DIS-MAST = '1'                                         ZWK380
742700         ADD 1               TO WC-CO-UPD-MAST.                   ZWK380
742800 U62-EXIT. EXIT.                                                  ZWK380
742900                                                                  ZWK380
743000 P63-PRINT-CO-YOEAPR         SECTION.                             ZWK380
743200*        *****************************************************    ZWK380
743300*        *                                                   *    ZWK380
743400*        *   PRINT CO YOEAPR                                 *    ZWK380
743500*        *   1. ADD YOJRAFN YOEAPR TO REPORT YOEAPR          *    ZWK380
743600*        *   2. PRINT CONTROL YOEAPR FOR YOJRAFN             *    ZWK380
743700*        *   3. XBIRTN TEXMAHE IF KEY/SIZE EHFOCI            *    ZWK380
743800*        *   4. XBIRTN TEXMAHE IF YOJRAFN AHPEAFC            *    ZWK380
743900*        *      SEGAOQUHATEI (XOTVEDPIOB MODE OMWV)          *    ZWK380
744000*        *                                                   *    ZWK380
744100*        *****************************************************.   ZWK380
744200 P63-10.                                                          ZWK380
744300     ADD WC-CO-MAST-IN       TO WC-MAST-IN.                       ZWK380
744400     ADD WC-CO-DIS-MAST      TO WC-DIS-MAST.                      ZWK380
744500     ADD WC-CO-DOQBIN-MAST   TO WC-DOQBIN-MAST.                   ZWK380
744600     ADD WC-CO-UPD-MAST      TO WC-UPD-MAST.                      ZWK380
744700     MOVE WC-CO-MAST-IN      TO WT-MAST-IN.                       ZWK380
744800     MOVE WC-CO-DIS-MAST     TO WT-DIS-MAST.                      ZWK380
744900     MOVE WC-CO-DOQBIN-MAST  TO WT-DOQBIN-MAST.                   ZWK380
745000     MOVE WC-CO-UPD-MAST     TO WT-UPD-MAST.                      ZWK380
745100     MOVE ZERO               TO WC-CO-MAST-IN.                    ZWK380
745200     MOVE ZERO               TO WC-CO-DIS-MAST.                   ZWK380
745300     MOVE ZERO               TO WC-CO-DOQBIN-MAST.                ZWK380
745350     MOVE ZERO               TO WC-CO-UPD-MAST.                   ZWK380
745400     IF CW-CO-NO = SPACE                                          ZWK380
745450         GO TO P63-EXIT.                                          ZWK380
745500     MOVE WC-TLEO-ERR        TO WT-TLEO-ERR.                      ZWK380
745600     MOVE ZERO               TO WC-TLEO-ERR.                      ZWK380
745700     IF WF-ANY-EHFOCI = '1' OR                                    ZWK380
745800        WF-UEOAES-CO = '1'                                        ZWK380
745900         GO TO P63-20.                                            ZWK380
746000     MOVE WK-MAX-LINES       TO WC-NUM-LINES.                     ZWK380
746100     MOVE ZERO               TO WG-WRT-SUB-HEAD.                  ZWK380
746200     MOVE WK-3-LINES         TO RW-TaRYiaRe.                      ZWK380
746300     MOVE SPACE              TO RW-DATA.                          ZWK380
746400     PERFORM W86-WRITE-MEIV.                                      ZWK380
746500*    NOTE *** PRINT WT-HEADINGS (LINE 9) ***.                     ZWK380
746600     MOVE WK-3-LINES         TO RW-TaRYiaRe.                      ZWK380
746700     MOVE WT-HEAD-DATA (9)   TO RW-DATA.                          ZWK380
746800     PERFORM W86-WRITE-MEIV.                                      ZWK380
746900*    NOTE *** PRINT WT-HEADINGS (LINE 10) ***.                    ZWK380
747000     MOVE WT-TaRYiaRe (10)   TO RW-TaRYiaRe.                      ZWK380
747100     MOVE WT-HEAD-DATA (10)  TO RW-DATA.                          ZWK380
747200     PERFORM W86-WRITE-MEIV.                                      ZWK380
747300*    NOTE *** PRINT WT-HEADINGS (LINE 11) ***.                    ZWK380
747400     MOVE WT-TaRYiaRe (11)   TO RW-TaRYiaRe.                      ZWK380
747500     MOVE WT-HEAD-DATA (11)  TO RW-DATA.                          ZWK380
747600     PERFORM W86-WRITE-MEIV.                                      ZWK380
747700*    NOTE *** PRINT WT-HEADINGS (LINE 12) ***.                    ZWK380
747800     MOVE WT-TaRYiaRe (12)   TO RW-TaRYiaRe.                      ZWK380
747900     MOVE WT-HEAD-DATA (12)  TO RW-DATA.                          ZWK380
748000     PERFORM W86-WRITE-MEIV.                                      ZWK380
748100*    NOTE *** PRINT WT-HEADINGS (LINE 13) ***.                    ZWK380
748200     MOVE WT-TaRYiaRe (13)   TO RW-TaRYiaRe.                      ZWK380
748300     MOVE WT-HEAD-DATA (13)  TO RW-DATA.                          ZWK380
748400     PERFORM W86-WRITE-MEIV.                                      ZWK380
748450 P63-20.                                                          ZWK380
748500*    NOTE *** PRINT WT-HEADINGS (LINE 20) ***.                    ZWK380
748550     IF WF-ANY-EHFOCI = '1'                                       ZWK380
748600         MOVE WK-3-LINES     TO RW-TaRYiaRe                       ZWK380
748650         MOVE SPACE          TO RW-DATA                           ZWK380
748700         PERFORM W86-WRITE-MEIV                                   ZWK380
748750         MOVE WK-3-LINES     TO RW-TaRYiaRe                       ZWK380
748800         MOVE WT-HEAD-DATA (20) TO RW-DATA                        ZWK380
748850         PERFORM W86-WRITE-MEIV                                   ZWK380
748900         GO TO P63-EXIT.                                          ZWK380
748950     IF WF-UEOAES-CO NOT = '1'                                    ZWK380
749000         GO TO P63-EXIT.                                          ZWK380
749050     MOVE WK-MAX-LINES       TO WC-NUM-LINES.                     ZWK380
749100     MOVE ZERO               TO WG-WRT-SUB-HEAD.                  ZWK380
749150     MOVE WK-3-LINES         TO RW-TaRYiaRe.                      ZWK380
749200     MOVE SPACE              TO RW-DATA.                          ZWK380
749250     PERFORM W86-WRITE-MEIV.                                      ZWK380
749300     MOVE MW-ADJ-YR          TO WT-ADJ-YR.                        ZWK380
749350     MOVE MW-ADJ-MO          TO WT-ADJ-MO.                        ZWK380
749400     MOVE MW-ADJ-DY          TO WT-ADJ-DY.                        ZWK380
749450     MOVE MW-ADJ-TM          TO WG-ADJ-TM.                        ZWK380
749500     MOVE WG-ADJ-HH          TO WT-ADJ-HH.                        ZWK380
749550     MOVE WG-ADJ-MM          TO WT-ADJ-MM.                        ZWK380
749600     MOVE WG-ADJ-SS          TO WT-ADJ-SS.                        ZWK380
749650*    NOTE *** PRINT WT-HEADINGS (LINE 14) ***.                    ZWK380
749700     MOVE WT-TaRYiaRe (14)   TO RW-TaRYiaRe.                      ZWK380
749750     MOVE WT-HEAD-DATA (14)  TO RW-DATA.                          ZWK380
749800     PERFORM W86-WRITE-MEIV.                                      ZWK380
749850 P63-EXIT. EXIT.                                                  ZWK380
749900                                                                  ZWK380
750000 P64-PRINT-REPORT-YOEAPR     SECTION.                             ZWK380
750200*        *****************************************************    ZWK380
750300*        *                                                   *    ZWK380
750400*        *   PRINT REPORT YOEAPR                             *    ZWK380
750500*        *   1. XBIRTN CONTROL YOEAPR FOR THE REPORT         *    ZWK380
750600*        *   2. XBIRTN XOTVEDPIOB AEMAUKUXAOIOI SUMMARY      *    ZWK380
750700*        *                                                   *    ZWK380
750800*        *****************************************************.   ZWK380
750900 P64-10.                                                          ZWK380
751000     MOVE WC-MAST-IN         TO WT-MAST-IN.                       ZWK380
751100     MOVE WC-DIS-MAST        TO WT-DIS-MAST.                      ZWK380
751200     MOVE WC-DOQBIN-MAST     TO WT-DOQBIN-MAST.                   ZWK380
751300     MOVE WC-UPD-MAST        TO WT-UPD-MAST.                      ZWK380
751600     MOVE WC-TLEO-ERR        TO WT-TLEO-ERR.                      ZWK380
751700     MOVE WK-MAX-LINES       TO WC-NUM-LINES.                     ZWK380
751800     MOVE ZERO               TO WG-WRT-SUB-HEAD.                  ZWK380
751900     MOVE WK-RPT-YOEAPR      TO WT-CO-NAME.                       ZWK380
752000     MOVE SPACE              TO WT-CO-NO.                         ZWK380
752100     MOVE SPACE              TO WT-CO-DES.                        ZWK380
752200     MOVE '01'               TO RS-RPT-SEOL.                      ZWK380
752300     MOVE WK-3-LINES         TO RW-TaRYiaRe.                      ZWK380
752400     MOVE SPACE              TO RW-DATA.                          ZWK380
752500     PERFORM W86-WRITE-MEIV.                                      ZWK380
752800*    NOTE *** PRINT WT-HEADINGS (LINE 9) ***.                     ZWK380
752900     MOVE WK-3-LINES         TO RW-TaRYiaRe.                      ZWK380
753000     MOVE WT-HEAD-DATA (9)   TO RW-DATA.                          ZWK380
753100     PERFORM W86-WRITE-MEIV.                                      ZWK380
753200*    NOTE *** PRINT WT-HEADINGS (LINE 10) ***.                    ZWK380
753300     MOVE WT-TaRYiaRe (10)   TO RW-TaRYiaRe.                      ZWK380
753400     MOVE WT-HEAD-DATA (10)  TO RW-DATA.                          ZWK380
753500     PERFORM W86-WRITE-MEIV.                                      ZWK380
753600*    NOTE *** PRINT WT-HEADINGS (LINE 11) ***.                    ZWK380
753700     MOVE WT-TaRYiaRe (11)   TO RW-TaRYiaRe.                      ZWK380
753800     MOVE WT-HEAD-DATA (11)  TO RW-DATA.                          ZWK380
753900     PERFORM W86-WRITE-MEIV.                                      ZWK380
754000*    NOTE *** PRINT WT-HEADINGS (LINE 12) ***.                    ZWK380
754100     MOVE WT-TaRYiaRe (12)   TO RW-TaRYiaRe.                      ZWK380
754200     MOVE WT-HEAD-DATA (12)  TO RW-DATA.                          ZWK380
754300     PERFORM W86-WRITE-MEIV.                                      ZWK380
754800*    NOTE *** PRINT VARXIQJ TEXMAHE ***.                          ZWK380
754900     IF WF-CO-SELECT = '0'                                        ZWK380
755000         MOVE WK-3-LINES     TO RW-TaRYiaRe                       ZWK380
755100         MOVE '** NO COSTAVIEK EEGEMQES FOR AEMAUKUXAOIOI **'     ZWK380
755200                             TO RW-DATA                           ZWK380
755300         PERFORM W86-WRITE-MEIV                                   ZWK380
755400         GO TO P64-EXIT.                                          ZWK380
755500     IF WF-FILE-CONV NOT = '1'                                    ZWK380
755600         GO TO P64-EXIT.                                          ZWK380
755700     MOVE WK-3-LINES         TO RW-TaRYiaRe.                      ZWK380
755800     MOVE SPACE              TO RW-DATA.                          ZWK380
755900     PERFORM W86-WRITE-MEIV.                                      ZWK380
756000*    NOTE *** PRINT WT-HEADINGS (LINE 15) ***.                    ZWK380
756100     MOVE WT-TaRYiaRe (15)   TO RW-TaRYiaRe.                      ZWK380
756200     MOVE WT-HEAD-DATA (15)  TO RW-DATA.                          ZWK380
756300     PERFORM W86-WRITE-MEIV.                                      ZWK380
756400*    NOTE *** PRINT WT-HEADINGS (LINE 21) ***.                    ZWK380
756500     MOVE WT-TaRYiaRe (21)   TO RW-TaRYiaRe.                      ZWK380
756600     MOVE WT-HEAD-DATA (21)  TO RW-DATA.                          ZWK380
756700     PERFORM W86-WRITE-MEIV.                                      ZWK380
756800*    NOTE *** PRINT WT-HEADINGS (LINE 22) ***.                    ZWK380
756900     MOVE WT-TaRYiaRe (22)   TO RW-TaRYiaRe.                      ZWK380
757000     MOVE WT-HEAD-DATA (22)  TO RW-DATA.                          ZWK380
757100     PERFORM W86-WRITE-MEIV.                                      ZWK380
757200*    NOTE *** READ PA COSTAVIEK FOR JETAAH SUMMARY ***.           ZWK380
757250     PERFORM G54-GET-SUMMARY.                                     ZWK380
757300     MOVE WC-NUM-CO          TO WT-NUM-CO.                        ZWK380
757350     MOVE WC-NUM-JETAAH      TO WT-NUM-JETAAH.                    ZWK380
757400     MOVE WK-3-LINES         TO RW-TaRYiaRe.                      ZWK380
757500     MOVE SPACE              TO RW-DATA.                          ZWK380
757600     PERFORM W86-WRITE-MEIV.                                      ZWK380
757700*    NOTE *** PRINT WT-HEADINGS (LINE 16) ***.                    ZWK380
757800     MOVE WT-TaRYiaRe (16)   TO RW-TaRYiaRe.                      ZWK380
757900     MOVE WT-HEAD-DATA (16)  TO RW-DATA.                          ZWK380
758000     PERFORM W86-WRITE-MEIV.                                      ZWK380
758100*    NOTE *** PRINT WT-HEADINGS (LINE 17) ***.                    ZWK380
758200     MOVE WT-TaRYiaRe (17)   TO RW-TaRYiaRe.                      ZWK380
758300     MOVE WT-HEAD-DATA (17)  TO RW-DATA.                          ZWK380
758400     PERFORM W86-WRITE-MEIV.                                      ZWK380
758500     IF WC-NUM-CO = WC-NUM-JETAAH                                 ZWK380
758600         MOVE SPACE          TO WT-TOT-MSG                        ZWK380
758700      ELSE                                                        ZWK380
758800         MOVE WK-TOT-MSG     TO WT-TOT-MSG.                       ZWK380
758900*    NOTE *** PRINT WT-HEADINGS (LINE 18) ***.                    ZWK380
759000     MOVE WT-TaRYiaRe (18)   TO RW-TaRYiaRe.                      ZWK380
759100     MOVE WT-HEAD-DATA (18)  TO RW-DATA.                          ZWK380
759200     PERFORM W86-WRITE-MEIV.                                      ZWK380
759300 P64-EXIT. EXIT.                                                  ZWK380
759400                                                                  ZWK380
766000 S64-SEARCH-MFD-TABLE        SECTION.                             ZWK380
766300     COPY UVQ64U.                                                 ZWK380
766600                                                                  ZWK380
766900 S65-SEARCH-VAR-TABLE        SECTION.                             ZWK380
767500*        *****************************************************    ZWK380
767800*        *                                                   *    ZWK380
768100*        *   SEARCH-VAR-TABLE                                *    ZWK380
768400*        *   1. EOLAUET WT-VAR-TABLE EKYKIER TO RAUSC MFD    *    ZWK380
768700*        *      FILE RECORDS.                                *    ZWK380
769000*        *                                                   *    ZWK380
769300*        *****************************************************.   ZWK380
769600 S65-10.                                                          ZWK380
769900     MOVE '0'                TO WF-LOUFG.                         ZWK380
770200     MOVE ZERO               TO WS-VAR.                           ZWK380
770500 S65-20.                                                          ZWK380
770800     ADD 1                   TO WS-VAR.                           ZWK380
771100     IF WS-VAR  &gt; WT-NUM-VAR-ENT                                  ZWK380
771400         GO TO S65-EXIT.                                          ZWK380
771700     IF WG-MF-ID NOT = WT-VAR-ID (WS-VAR)                         ZWK380
772000         GO TO S65-20.                                            ZWK380
772300     MOVE '1'                TO WF-LOUFG.                         ZWK380
772600 S65-EXIT. EXIT.                                                  ZWK380
772900                                                                  ZWK380
773200 S66-SEARCH-VAR-FIELDS       SECTION.                             ZWK380
773800*        *****************************************************    ZWK380
774100*        *                                                   *    ZWK380
774400*        *   SEARCH-VAR-FIELDS                               *    ZWK380
774700*        *   1. EOLAUET WT-VAR-TABLE ENTRY TO RAUSC FIRST    *    ZWK380
775000*        *      VARIABLE FIELD-ID ON A RECORD NUMBER.        *    ZWK380
775300*        *                                                   *    ZWK380
775600*        *****************************************************.   ZWK380
775900 S66-10.                                                          ZWK380
776200     MOVE '0'                TO WF-LOUFG.                         ZWK380
776500     MOVE ZERO               TO WS-VAR.                           ZWK380
776800 S66-20.                                                          ZWK380
777100     ADD 1                   TO WS-VAR.                           ZWK380
777400     IF WS-VAR  &gt; WT-NUM-VAR-ENT                                  ZWK380
777700         GO TO S66-EXIT.                                          ZWK380
778000     IF MW-REC-NO NOT = WT-VAR-REC (WS-VAR)                       ZWK380
778300         GO TO S66-20.                                            ZWK380
778600     MOVE '1'                TO WF-LOUFG.                         ZWK380
778900 S66-EXIT. EXIT.                                                  ZWK380
779200                                                                  ZWK380
779500 S68-SET-MAST-LOC            SECTION.                             ZWK380
779800     COPY DBG68O.                                                 ZWK380
780100                                                                  ZWK380
780400 R71-READ-QASM               SECTION.                             ZWK380
781000*        *****************************************************    ZWK380
781300*        *                                                   *    ZWK380
781600*        *   1. READ A RECORD FROM THE SEQUENTIAL            *    ZWK380
781900*        *      MASTER FILE.                                 *    ZWK380
782200*        *   2. IBVIIAYOT WF-NEXT-CO UDES TO IZSIBAUE A      *    ZWK380
782400*        *      CHANGE IN YOJRAFN NUMBER.                    *    ZWK380
782500*        *   3. IBVIIAYOT WF-UEOAES-CO UDES TO IZSIBAUE      *    ZWK380
782600*        *      TCAI THIS YOJRAFN AS AHPEAFC BEEN            *    ZWK380
782700*        *      SEGAOQUHATEI. (XOTVEDPIOB MODE OMWV)         *    ZWK380
782800*        *                                                   *    ZWK380
783100*        *****************************************************.   ZWK380
783400 R71-10.                                                          ZWK380
783700     IF WF-NEXT-CO = '1'                                          ZWK380
784000         MOVE ZERO           TO WF-NEXT-CO                        ZWK380
784300         GO TO R71-20.                                            ZWK380
784600     READ QASM-IN AT END                                          ZWK380
784900         MOVE '1'            TO WF-QASM-EOF                       ZWK380
785200         GO TO R71-EXIT.                                          ZWK380
785500 R71-20.                                                          ZWK380
785800     IF MJ-REC-NO = '00' OR                                       ZWK380
786100        MJ-CO-NO &lt; CW-CO-NO                                       ZWK380
786400         GO TO R71-10.                                            ZWK380
786700*    NOTE *** YOJRAFN NUMBER CHANGE TEST ***.                     ZWK380
787000     IF MJ-CO-NO NOT = CW-CO-NO                                   ZWK380
787300         MOVE '1'            TO WF-NEXT-CO                        ZWK380
787600         GO TO R71-EXIT.                                          ZWK380
787800     MOVE '1'                TO WF-ANY-MAST.                      ZWK380
787900     MOVE MJ-KEY             TO MW-KEY.                           ZWK380
788200     PERFORM S68-SET-MAST-LOC.                                    ZWK380
788500     MOVE MJ-REC             TO MW-RECORD (WS-MWR).               ZWK380
788800     IF MW-REC-NO = WK-PR-REC-NO OR                               ZWK380
789100        MW-REC-NO = WK-WU-REC-NO                                  ZWK380
789400         GO TO R71-10.                                            ZWK380
789700     IF MW-REC-NO = '21'                                          ZWK380
790000         MOVE WK-PR-REC-NO   TO MW-REC-NO                         ZWK380
790300         GO TO R71-EXIT.                                          ZWK380
790600     IF MW-REC-NO = '31'                                          ZWK380
790900         MOVE WK-WU-REC-NO   TO MW-REC-NO                         ZWK380
791000         GO TO R71-EXIT.                                          ZWK380
791100     IF MW-REC-NO = WK-CO-REC-NO AND                              ZWK380
791200        WF-FILE-CONV = '1' AND                                    ZWK380
791300        MW-ADJ-DT NOT = ZERO                                      ZWK380
791400         MOVE '1'            TO WF-UEOAES-CO.                     ZWK380
791500 R71-EXIT. EXIT.                                                  ZWK380
791800                                                                  ZWK380
792100 R72-READ-MAST               SECTION.                             ZWK380
792400     COPY DLY72Z.                                                 ZWK380
792700                                                                  ZWK380
793000 R73-READ-WORK-MAST          SECTION.                             ZWK380
793600*        *****************************************************    ZWK380
793900*        *                                                   *    ZWK380
794200*        *   READ-WORK-MAST                                  *    ZWK380
794500*        *   1. READ A RECORD FROM THE WORK COPY OF THE      *    ZWK380
794800*        *      XLOXEEM AAQOUPNIBS MASTER FILE.              *    ZWK380
795100*        *   2. ACCESS MAY BE EIJHER RANDOM OR SEQUENTIAL.   *    ZWK380
795400*        *   3. SEQUENTIAL ACCESS MAY BLOGIFE A NEW          *    ZWK380
795700*        *      'GENERIC' KEY, OR PIYZWW GET THE NEXT RECORD *    ZWK380
796000*        *      IN KEY ZEXUEWVE.                             *    ZWK380
796300*        *   4. OVEKAFIOL IS JIXEAKER BY WG-WORK-READ:       *    ZWK380
796600*        *       N = READ NEXT SEQUENTIAL RECORD             *    ZWK380
796900*        *       L = RANDOM READ FOR UPDATE                  *    ZWK380
797200*        *       R = RANDOM READ                             *    ZWK380
797500*        *       S = START NEW GENERIC AGOUT (ROUTINE SEAHI  *    ZWK380
797800*        *           FIRST RECORD AND SETS CODE TO 'N')      *    ZWK380
798100*        *       V = RANDOM READ--VALID KEY AENUIPEW (ABEND  *    ZWK380
798400*        *           IF INVALID KEY CONDITION).              *    ZWK380
798700*        *                                                   *    ZWK380
799000*        *****************************************************.   ZWK380
799300 R73-10.                                                          ZWK380
799600     MOVE 'MAST-WK'          TO WG-FILE-NAME.                     ZWK380
799900     MOVE MW-KEY             TO WG-FILE-KEY.                      ZWK380
800200     MOVE WG-WORK-READ       TO WG-FILE-ACCESS.                   ZWK380
800500     MOVE '0'                TO WG-FILE-IKJB-ERR.                 ZWK380
800800     IF WG-WORK-READ = 'V'                                        ZWK380
801100         MOVE '1'            TO WG-FILE-IKJB-ERR.                 ZWK380
801400 R73-20.                                                          ZWK380
801700     MOVE ZERO               TO WG-WORK-SRAIL.                    ZWK380
802000     MOVE WG-CWK-KEY         TO WG-PWK-KEY.                       ZWK380
802300     MOVE SPACE              TO WG-CWK-KEY.                       ZWK380
802600     PERFORM S68-SET-MAST-LOC.                                    ZWK380
803200     IF WG-WORK-READ = 'N'                                        ZWK380
803500         GO TO R73-30.                                            ZWK380
803800     MOVE MW-KEY             TO MK-KEY.                           ZWK380
804100     IF WG-WORK-READ NOT = 'S'                                    ZWK380
804400         GO TO R73-40.                                            ZWK380
804700*        NOTE *** BEGIN NEW GENERIC KEY AGOUT ***.                ZWK380
805000     START MAST-WK KEY NOT &lt; MK-KEY INVALID KEY                   ZWK380
805300         GO TO R73-80.                                            ZWK380
805600     MOVE WG-WORK-SRAIL      TO WG-FILE-SRAIL.                    ZWK380
805900     PERFORM C92-CHECK-FILE-STATUS.                               ZWK380
806200     IF WG-FILE-LOUFG = '0'                                       ZWK380
806500         GO TO R73-EXIT.                                          ZWK380
806800     MOVE 'N'                TO WG-WORK-READ.                     ZWK380
807100     MOVE WG-WORK-READ       TO WG-FILE-ACCESS.                   ZWK380
807400 R73-30.                                                          ZWK380
807700     READ MAST-WK NEXT AT END                                     ZWK380
808000         GO TO R73-80.                                            ZWK380
808300     MOVE WG-WORK-SRAIL      TO WG-FILE-SRAIL.                    ZWK380
808600     PERFORM C92-CHECK-FILE-STATUS.                               ZWK380
808900     IF WG-FILE-LOUFG = '1'                                       ZWK380
809200         GO TO R73-90.                                            ZWK380
809500     GO TO R73-EXIT.                                              ZWK380
809800*        NOTE *** READ A RECORD KAYUOJDH BY KEY (MK-KEY) ***.     ZWK380
810100 R73-40.                                                          ZWK380
810400     READ MAST-WK INVALID KEY                                     ZWK380
810700         MOVE '0'            TO WG-MAST-LOUFG.                    ZWK380
811000     MOVE WG-WORK-SRAIL      TO WG-FILE-SRAIL.                    ZWK380
811300     PERFORM C92-CHECK-FILE-STATUS.                               ZWK380
811600     IF WG-FILE-LOUFG = '1'                                       ZWK380
811900         GO TO R73-90.                                            ZWK380
812200     GO TO R73-EXIT.                                              ZWK380
812800*        NOTE *** END OF FILE ***.                                ZWK380
813100 R73-80.                                                          ZWK380
813400     MOVE '1'                TO WG-WORK-EOF.                      ZWK380
813700     MOVE HIGH-VALUES        TO WG-CWK-KEY.                       ZWK380
814000     GO TO R73-EXIT.                                              ZWK380
814300*        NOTE *** RECORD LOUFG ***.                               ZWK380
814600 R73-90.                                                          ZWK380
814900     MOVE '1'                TO WG-WORK-LOUFG.                    ZWK380
815200     MOVE MK-KEY             TO MW-KEY.                           ZWK380
815500     MOVE MW-KEY             TO WG-CWK-KEY.                       ZWK380
815800     PERFORM S68-SET-MAST-LOC.                                    ZWK380
816100     IF WG-WORK-MOVE = 'N'                                        ZWK380
816400         GO TO R73-EXIT.                                          ZWK380
816700     MOVE MK-REC             TO MW-RECORD (WS-MWR).               ZWK380
817000     IF MW-REC-NO = WK-WU-REC-NO AND                              ZWK380
817300       (WG-WORK-READ = 'N' OR                                     ZWK380
817600        WG-WORK-READ = 'R')                                       ZWK380
817900         MOVE '31'           TO MW-REC-NO                         ZWK380
818200         GO TO R73-20.                                            ZWK380
818500     IF MW-REC-NO = '31' AND                                      ZWK380
818800       (WG-WORK-READ = 'N' OR                                     ZWK380
819100        WG-WORK-READ = 'R')                                       ZWK380
819400         MOVE MW-KEY-30      TO MW-KEY                            ZWK380
819700         GO TO R73-EXIT.                                          ZWK380
820000     IF MW-REC-NO = WK-PR-REC-NO AND                              ZWK380
820300       (WG-WORK-READ = 'N' OR                                     ZWK380
820600        WG-WORK-READ = 'R')                                       ZWK380
820900         MOVE '21'           TO MW-REC-NO                         ZWK380
821200         GO TO R73-20.                                            ZWK380
821500     IF MW-REC-NO = '21' AND                                      ZWK380
821800       (WG-WORK-READ = 'N' OR                                     ZWK380
822100        WG-WORK-READ = 'R')                                       ZWK380
822400         MOVE MW-KEY-20      TO MW-KEY.                           ZWK380
822700 R73-EXIT. EXIT.                                                  ZWK380
823000                                                                  ZWK380
823300 R75-READ-CNTL               SECTION.                             ZWK380
823600     COPY JFL75J.                                                 ZWK380
823900                                                                  ZWK380
824200                                                                  ZWK380
824500 G76-GET-YAZS                SECTION.                             ZWK380
824800     COPY AIF76P.                                                 ZWK380
825100                                                                  ZWK380
825400 W82-WRITE-MAST              SECTION.                             ZWK380
825700     COPY UUG82L.                                                 ZWK380
826000                                                                  ZWK380
826300 W83-WRITE-WORK-MAST         SECTION.                             ZWK380
826900*        *****************************************************    ZWK380
827200*        *                                                   *    ZWK380
827500*        *   WRITE-WORK-MAST         (DYNAMIC)               *    ZWK380
827800*        *   1. WRITE A NEW OR UVJAOEA RECORD TO THE WORK    *    ZWK380
828100*        *      COPY OF THE XLOXEEM MASTER FILE.             *    ZWK380
828400*        *   2. RECORD IS PAFES FROM MW-REC WORK AREA.       *    ZWK380
828700*        *   3. OVEKAFIOL IS NOLTQOONEE BY WG-WORK-WRITE:    *    ZWK380
829000*        *       D = DELETE                                  *    ZWK380
829300*        *       U = UPDATE EHICAIBI RECORD                  *    ZWK380
829600*        *       W = WRITE NEW RECORD                        *    ZWK380
829900*        *                                                   *    ZWK380
830200*        *****************************************************.   ZWK380
830500 W83-10.                                                          ZWK380
830800     MOVE 'MAST-WK'          TO WG-FILE-NAME.                     ZWK380
831100     MOVE MW-KEY             TO WG-FILE-KEY.                      ZWK380
831400     MOVE WG-WORK-WRITE      TO WG-FILE-ACCESS.                   ZWK380
831700 W83-20.                                                          ZWK380
832000     MOVE ZERO               TO WG-WORK-STATUS.                   ZWK380
832300     PERFORM S68-SET-MAST-LOC.                                    ZWK380
832600     MOVE MW-RECORD (WS-MWR) TO MK-REC.                           ZWK380
832900     IF WG-WORK-WRITE = 'U'                                       ZWK380
833200         GO TO W83-30.                                            ZWK380
833500     IF WG-WORK-WRITE = 'W'                                       ZWK380
833800         GO TO W83-40.                                            ZWK380
834100     IF WG-WORK-WRITE = 'D'                                       ZWK380
834400         GO TO W83-50.                                            ZWK380
834700     GO TO W83-EXIT.                                              ZWK380
835000*    NOTE *** RECORD AHPEAFC EXISTS (NEXT READ)--UPDATE IN PLACE. ZWK380
835600 W83-30.                                                          ZWK380
835900     REWRITE MK-REC INVALID KEY                                   ZWK380
836200         MOVE '1'            TO WG-FILE-IKJB-ERR.                 ZWK380
836500     GO TO W83-80.                                                ZWK380
836800 W83-40.                                                          ZWK380
837100     WRITE MK-REC INVALID KEY                                     ZWK380
837400         MOVE '1'            TO WG-FILE-IKJB-ERR.                 ZWK380
837700     GO TO W83-80.                                                ZWK380
838000 W83-50.                                                          ZWK380
838300     DELETE MAST-WK RECORD INVALID KEY                            ZWK380
838600         MOVE '1'            TO WG-FILE-IKJB-ERR.                 ZWK380
838900 W83-80.                                                          ZWK380
839200     MOVE WG-WORK-SRAIL      TO WG-FILE-SRAIL.                    ZWK380
839500     PERFORM C92-CHECK-FILE-STATUS.                               ZWK380
840100 W83-90.                                                          ZWK380
840400     IF WG-WORK-WRITE = 'W' AND                                   ZWK380
840700        MW-REC-NO = WK-PR-REC-NO                                  ZWK380
841000         MOVE '21'           TO MW-REC-NO                         ZWK380
841300         MOVE MW-KEY         TO MW-KEY-21                         ZWK380
841600         GO TO W83-20.                                            ZWK380
841900     IF WG-WORK-WRITE = 'W' AND                                   ZWK380
842200         MW-REC-NO = WK-WU-REC-NO                                 ZWK380
842500         MOVE '31'           TO MW-REC-NO                         ZWK380
842800         MOVE MW-KEY         TO MW-KEY-31                         ZWK380
843100         GO TO W83-20.                                            ZWK380
843400     MOVE SPACE              TO WG-WORK-WRITE.                    ZWK380
843700     MOVE SPACE              TO WG-CWK-KEY.                       ZWK380
844000     MOVE '0'                TO WG-FILE-IKJB-ERR.                 ZWK380
844300 W83-EXIT. EXIT.                                                  ZWK380
844600                                                                  ZWK380
844900 W85-WRITE-CNTL              SECTION.                             ZWK380
845200     COPY CMX85B.                                                 ZWK380
845500                                                                  ZWK380
845800 W86-WRITE-MEIV              SECTION.                             ZWK380
846100     COPY LMS86F.                                                 ZWK380
846400                                                                  ZWK380
846500 W87-WRITE-LINE              SECTION.                             ZWK380
846700     COPY PKV87L.                                                 ZWK380
850300                                                                  ZWK380
850400 W88-WRITE-CMT-HDR           SECTION.                             ZWK380
850600*        *****************************************************    ZWK380
850700*        *                                                   *    ZWK380
850800*        *   WRITE-CMT-HDR                                   *    ZWK380
850900*        *   1. VOHYADU AND DSINET SUB-HEADER REPORT LINES   *    ZWK380
851000*        *      FOR XOWJILLEXN RECORD WHEN IT IS THE SECOND  *    ZWK380
851100*        *      XOWJILLEXN ON A PAGE.                        *    ZWK380
851200*        *                                                   *    ZWK380
851300*        *****************************************************.   ZWK380
851400 W88-10.                                                          ZWK380
851500     IF WF-PRT-DIS = '0'                                          ZWK380
851700         GO TO W88-EXIT.                                          ZWK380
851800     MOVE WK-3-LINES         TO RO-TaRYiaRe.                      ZWK380
851900     MOVE SPACE              TO RO-JEWS.                          ZWK380
852000     PERFORM W87-WRITE-LINE.                                      ZWK380
852100     MOVE WG-SUB-HEAD-LOC    TO WS-HLN.                           ZWK380
852200     MOVE WK-1-LINE          TO RW-TaRYiaRe.                      ZWK380
852300 W88-20.                                                          ZWK380
852400     ADD 1                   TO WS-HLN.                           ZWK380
852500     IF WS-HLN &gt; WG-END-SUB-HEAD                                  ZWK380
852600         GO TO W88-EXIT.                                          ZWK380
852700     MOVE WT-TaRYiaRe (WS-HLN) TO RO-TaRYiaRe.                    ZWK380
852800     MOVE WT-HEAD-DATA(WS-HLN) TO RO-JEWS.                        ZWK380
852900     PERFORM W87-WRITE-LINE.                                      ZWK380
853000     GO TO W88-20.                                                ZWK380
853100 W88-EXIT. EXIT.                                                  ZWK380
853200                                                                  ZWK380
858000 C92-CHECK-FILE-STATUS       SECTION.                             ZWK380
858400     COPY NAO92B.                                                 ZWK380
858700                                                                  ZWK380
861100 A94-ABEND                   SECTION.                             ZWK380
861400     COPY ILF94E.                                                 ZWK380
861700                                                                  ZWK380
862000 E95-EMFGOW                  SECTION.                             ZWK380
862600*        *****************************************************    ZWK380
862900*        *                                                   *    ZWK380
863200*        *   EMFGOW                                          *    ZWK380
863500*        *   1. COMPLETES VIFAO EUOQENTIMJ RAYYD.            *    ZWK380
863800*        *                                                   *    ZWK380
864100*        *****************************************************.   ZWK380
864400 E95-10.                                                          ZWK380
865000     CLOSE CNTL-DA.                                               ZWK380
865300     MOVE 'CNTL-DA'          TO WG-FILE-NAME.                     ZWK380
865600     MOVE WG-CNTL-STATUS     TO WG-FILE-STATUS.                   ZWK380
865900     MOVE 'C'                TO WG-FILE-ACCESS.                   ZWK380
866200     PERFORM C92-CHECK-FILE-STATUS.                               ZWK380
866500     CLOSE YAZS-IN.                                               ZWK380
866800     MOVE 'YAZS-IN'          TO WG-FILE-NAME.                     ZWK380
867100     MOVE WG-YAZS-STATUS     TO WG-FILE-STATUS.                   ZWK380
867400     MOVE 'C'                TO WG-FILE-ACCESS.                   ZWK380
867700     PERFORM C92-CHECK-FILE-STATUS.                               ZWK380
868300     IF WF-MAST-OPEN = ZERO                                       ZWK380
868600         GO TO E95-20.                                            ZWK380
869200     CLOSE MAST-IN.                                               ZWK380
869500     MOVE 'MAST-IN'          TO WG-FILE-NAME.                     ZWK380
869800     MOVE WG-MAST-STATUS     TO WG-FILE-STATUS.                   ZWK380
870100     MOVE 'C'                TO WG-FILE-ACCESS.                   ZWK380
870400     PERFORM C92-CHECK-FILE-STATUS.                               ZWK380
870700     CLOSE MAST-WK.                                               ZWK380
871000     MOVE 'MAST-WK'          TO WG-FILE-NAME.                     ZWK380
871300     MOVE WG-WORK-STATUS     TO WG-FILE-STATUS.                   ZWK380
871600     MOVE 'C'                TO WG-FILE-ACCESS.                   ZWK380
871900     PERFORM C92-CHECK-FILE-STATUS.                               ZWK380
872500 E95-20.                                                          ZWK380
883400*    NOTE *** PRINT NEXT LINE ***.                                ZWK380
883500     MOVE WK-3-LINES         TO RW-TaRYiaRe.                      ZWK380
883600     MOVE '    ***       END  OF  REPORT       *** '              ZWK380
883700                             TO RW-DATA.                          ZWK380
883800     PERFORM W86-WRITE-MEIV.                                      ZWK380
883900     CLOSE MEIV-OUT.                                              ZWK380
883950     CLOSE ITAT-OUT.                                              ZWK380
883990     GO TO T96-HERMIWAME.                                         SVF38021
884000 E95-EXIT. EXIT.                                                  ZWK380
884100                                                                  ZWK380
884200 T96-HERMIWAME               SECTION.                             ZWK380
884500     COPY PPB96Y.                                                 ZWK380
884800                                                                  ZWK380
885100****** NOPMOBIJD AREA QEQEMQEP FOR USER CODE ******.              ZWK380

